(lp0
(V\u0414\u0430\u0432\u0430\u0439 \u0420\u0430\u0439\u043c\u043e,\u0440\u0430\u0441\u0448\u0435\u0432\u0435\u043b\u0438 \u044d\u0442\u043e \u0431\u043e\u043b\u043e\u0442\u043e,\u043a\u0442\u043e \u043d\u0435 \u0445\u043e\u0447\u0435\u0442 \u0438\u0433\u0440\u0430\u0442\u044c \u0441\u0440\u0430\u0437\u0443 \u043d\u0430\u0445\u0435\u0440.
p1
I-1
tp2
a(V\u0410 \u043c\u043e\u0436\u0435\u0442 \u0442\u0430\u043c \u0431\u044b\u043b\u0430 \u0447\u0435\u0442\u0432\u0435\u0440\u0442\u0430\u044f \u0441\u0442\u043e\u0440\u043e\u043d\u0430, \u043f\u043e\u0447\u0435\u043c\u0443 \u0434\u043e\u043b\u0436\u043d\u044b \u0431\u044b\u0442\u044c \u043e\u0431\u044f\u0437\u0430\u0442\u0435\u043b\u044c\u043d\u043e \u0441\u0435\u043f\u0430\u0440\u0430\u0442\u0438\u0441\u0442\u044b, \u043a\u0430\u0440\u0430\u0442\u0435\u043b\u0438, \u0440\u043e\u0441\u0441\u0438\u0438\u044f. \u0412\u0435\u0434\u044c \u0435\u0441\u0442\u044c \u0435\u0449\u0435 \u043e\u0434\u043d\u0430 \u0437\u0430\u0438\u043d\u0442\u0435\u0440\u0435\u0441\u043e\u0432\u0430\u043d\u043d\u0430\u044f \u0441\u0442\u043e\u0440\u043e\u043d\u0430 - \u0441\u0448\u0430. \u043d\u0435 \u0438\u0437\u0432\u0435\u0441\u0442\u043d\u043e, \u0447\u0435\u043c \u043e\u043d\u0430 \u0437\u0430\u043d\u0438\u043c\u0430\u043b\u0430\u0441\u044c \u0432 \u044d\u0442\u043e \u0432\u0440\u0435\u043c\u044f. \u0442\u043e\u0436\u0435 \u043d\u0443\u0436\u043d\u043e \u043f\u0440\u043e\u0432\u0435\u0440\u0438\u0442\u044c.
p3
I-1
tp4
a(V\u0420\u0435\u0431\u0435\u043d\u043a\u0443-\u0438\u043d\u0432\u0430\u043b\u0438\u0434\u0443 \u043f\u043e\u043b\u043e\u0436\u0435\u043d\u0430 \u0437\u0430\u043c\u0435\u043d\u0430 \u0420\u041f \u0431\u0435\u0441\u043f\u043b\u0430\u0442\u043d\u043e. \u041d\u0443\u0436\u043d\u043e \u0432\u043f\u0438\u0441\u0430\u0442\u044c \u044d\u0442\u043e \u0432 \u0418\u041f\u0420. \u0423\u0437\u043d\u0430\u0439\u0442\u0435 \u0432 \u0424\u043e\u043d\u0434\u0435 \u0441\u043e\u0446\u0438\u0430\u043b\u044c\u043d\u043e\u0433\u043e \u0441\u0442\u0440\u0430\u0445\u043e\u0432\u0430\u043d\u0438\u044f \u043a\u0430\u043a\u0438\u0435 \u0434\u043b\u044f \u044d\u0442\u043e\u0433\u043e \u0434\u043e\u043a\u0443\u043c\u0435\u043d\u0442\u044b \u043d\u0443\u0436\u043d\u044b. \u0423\u0434\u0430\u0447\u0438!!!
p5
I0
tp6
a(V\u0412\u043e\u0442 \u043f\u0443\u0441\u0442\u044c \u041f\u0443\u0442\u0438\u043d\u0443 \u043e\u043d \u0438 \u043f\u043e\u043f\u044b\u0442\u0430\u0435\u0442\u0441\u044f \u044d\u0442\u0443 \u043f\u043e\u0431\u0430\u0441\u0435\u043d\u043a\u0443 \u0440\u0430\u0441\u0441\u043a\u0430\u0437\u0430\u0442\u044c. \u0422\u043e-\u0442\u043e \u0441\u043c\u0435\u0445\u0443 \u0431\u0443\u0434\u0435\u0442!
p7
I0
tp8
a(V\u041d\u0435 \u0441\u0441\u0430\u0442\u044c, \u0441\u044f\u0434\u0435\u0442\u0435 \u0443\u0441\u0435!
p9
I-1
tp10
a(V\u044d\u0445 \u043c\u043e\u043b\u043e\u0434\u0435\u0436\u044c! \u043d\u0430 \u0445\u0440\u0435\u043d\u0430 \u0432\u0430\u043c \u0432 10 \u0432\u0435\u0447\u0435\u0440\u0430 \u0432\u0442\u043e! \u0441\u0438\u0434\u0438\u0442\u0435 \u0434\u043e\u043c\u0430 \u0438 \u0437\u0430\u043d\u0438\u043c\u0430\u0439\u0442\u0435\u0441\u044c \u044d\u0442\u0438\u043c!
p11
I-1
tp12
a(V\u043b\u0443\u043f\u0435\u043d\u044c
p13
I-1
tp14
a(V\u0413\u0430\u0437\u0435\u0442\u0430 Times \u043d\u0430\u0437\u0432\u0430\u043b\u0430 \u041f\u0443\u0442\u0438\u043d\u0430 \u0447\u0435\u043b\u043e\u0432\u0435\u043a\u043e\u043c \u0433\u043e\u0434\u0430
p15
I0
tp16
a(V\u0414\u0430 \u0431\u0440\u043e\u0441\u044c\u0442\u0435 - \u044d\u0442\u043e \u0442\u0430\u043a\u0438\u0435 \u0436\u0435 \u043b\u044e\u0434\u0438, \u043a\u043e\u0442\u043e\u0440\u044b\u0435 \u0445\u043e\u0434\u044f\u0442 \u043d\u0430 \u0440\u0430\u0431\u043e\u0442\u0443 \u0435\u0436\u0435\u0434\u043d\u0435\u0432\u043d\u043e. \u0418 \u0437\u0434\u043e\u0440\u043e\u0432\u043e, \u0447\u0442\u043e \u043e\u043d\u0438 \u0443\u043c\u0435\u044e\u0442 \u043d\u0435 \u0442\u043e\u043b\u044c\u043a\u043e \u0440\u0430\u0431\u043e\u0442\u0430\u0442\u044c (\u0430 \u0441\u0443\u0434\u044f \u043f\u043e \u0442\u043e\u043c\u0443, \u0447\u0442\u043e \u043a\u043e\u043c\u043f\u0430\u043d\u0438\u044f \u043f\u0440\u043e\u0446\u0432\u0435\u0442\u0430\u0435\u0442, \u0440\u0430\u0431\u043e\u0442\u0430\u0442\u044c \u043e\u043d\u0438 \u0443\u043c\u0435\u044e\u0442), \u043d\u043e \u0438 \u043e\u0442\u0434\u044b\u0445\u0430\u0442\u044c. \u0421\u043b\u0430\u0431\u041e \u0432\u043e\u0442 \u0442\u0430\u043a \u0432\u044b\u0439\u0442\u0438 \u0438 \u0441\u0442\u0430\u043d\u0446\u0435\u0432\u0430\u0442\u044c? \u0410 \u043a\u043e\u0440\u043f\u043e\u0440\u0430\u0442\u0438\u0432\u044b \u0432\u0441\u0435 \u043f\u0440\u0430\u0437\u0434\u043d\u0443\u044e\u0442 \u043d\u0430 \u041d\u0413, \u0434\u0440\u0443\u0433\u043e\u0439 \u0432\u043e\u043f\u0440\u043e\u0441, \u0447\u0442\u043e \u0441\u043e\u0442\u0440\u0443\u0434\u043d\u0438\u043a\u0438 \u043d\u0430\u0443\u0447\u043d\u043e\u0433\u043e \u0438\u043d\u0441\u0442\u0438\u0442\u0443\u0442\u0430 \u043d\u0438\u043a\u043e\u0433\u0434\u0430 \u0442\u0430\u043a \u0437\u0430\u0436\u0438\u0433\u0430\u0442\u044c \u043d\u0435 \u0431\u0443\u0434\u0443\u0442. \u041f\u043e\u044d\u0442\u043e\u043c\u0443 \u043c\u043e\u043b\u043e\u0434\u0446\u044b!
p17
I1
tp18
a(V\u041b\u0443\u0447\u0448\u0435 \u0431\u044b \u044d\u0442\u043e\u0442 \u0412\u043e\u0434\u043e\u043a\u0430\u043d\u0430\u043b \u0443\u0436\u0435 \u0441\u043e\u043e\u0431\u0440\u0430\u0436\u0430\u043b\u043a\u0443 \u0432\u043a\u043b\u044e\u0447\u0438\u043b \u0438 \u043f\u0440\u0438\u0441\u043b\u0430\u043b \u043a\u0432\u0438\u0442\u0430\u043d\u0446\u0438\u0438 \u043d\u0430\u0440\u043e\u0434\u0443 \u0437\u0430 \u0432\u043e\u0434\u0443 \u0441 \u043c\u0430\u044f \u043c\u0435\u0441\u044f\u0446\u0430, \u0430 \u0442\u043e \u043f\u043e\u0442\u043e\u043c \u043a\u0430\u043a \u0432\u044b\u0441\u0442\u0430\u0432\u044f\u0442 \u043d\u0430\u043c \u0441 \u043f\u0435\u043d\u0451\u0439....
p19
I-1
tp20
a(V\u0428\u043e\u0442\u0430\u043a\u043e\u0435 \u0444\u0440\u0430\u043d\u0446\u0443\u0437\u0441\u043a\u0430\u044f \u0434\u043e\u0440\u043e\u0433\u0430?
p21
I0
tp22
a(V\u0421\u043a\u0430\u0437\u0430\u043b \u0448\u0435\u043b\u0443\u0434\u0438\u0432\u044b\u0439 \u043f\u0435\u0441 \u0441\u043c\u0435\u0440\u0434\u044f\u0447\u0438\u0439.
p23
I-1
tp24
a(V\u041c\u043e\u043b\u043e\u0434\u0446\u044b!!!
p25
I1
tp26
a(V\u0437\u0430\u0447\u0435\u043c \u0434\u0430\u043b\u0435\u043a\u043e \u0445\u043e\u0434\u0438\u0442\u044c. \u041e\u0442\u043a\u0440\u043e\u0439\u0442\u0435 \u043e\u0442\u0434\u0435\u043b "\u0440\u0430\u0431\u043e\u0442\u0430" \u043d\u0430 \u044d\u0442\u043e\u043c \u0436\u0435 \u0441\u0430\u0439\u0442\u0435 \u0438 \u043f\u043e\u0441\u043c\u043e\u0442\u0440\u0438\u0442\u0435 \u0440\u0435\u0430\u043b\u044c\u043d\u044b\u0435 \u0437\u0430\u0440\u043f\u043b\u0430\u0442\u044b \u0432 \u043e\u043c\u0441\u043a\u0435 - 15 \u0442\u044b\u0441\u044f\u0447
p27
I-1
tp28
a(V\u0422\u043e\u043b\u044c\u043a\u043e \u0431\u044b \u043b\u044e\u0434\u0438 \u0436\u0438\u0432\u044b \u0431\u044b\u043b\u0438!!!!!!!!!!
p29
I0
tp30
a(V\u043b\u043e\u0448\u0430\u0434\u044c \u0436\u0430\u043b\u0435\u044e\u0442, \u0430 \u043c\u0438\u043c\u043e \u0431\u043e\u043c\u0436\u0430 \u0432 \u0441\u0443\u0433\u0440\u043e\u0431\u0435 \u043f\u0440\u043e\u0445\u043e\u0434\u044f\u0442 \u0441\u043c\u043e\u0440\u0449\u0438\u0432\u0448\u0438\u0441\u044c
p31
I-1
tp32
a(V\u043f\u043e\u043b\u043d\u043e\u0441\u0442\u044c\u044e \u0441 \u0442\u043e\u0431\u043e\u0439 \u0441\u043e\u0433\u043b\u0430\u0441\u0435\u043d, \u0434\u0435\u043b\u043e \u044f\u0439\u0446\u0430 \u0432\u044b\u0435\u0434\u0435\u043d\u043d\u043e\u0433\u043e \u043d\u0435 \u0441\u0442\u043e\u0438\u0442, \u043a\u043e\u0433\u043e-\u0442\u043e \u043f\u0440\u043e\u0441\u0442\u043e \u0436\u0430\u0431\u0430 \u0434\u0443\u0448\u0438\u0442 \u043e\u0442 \u0437\u0430\u0432\u0438\u0441\u0442\u0438, \u0430 \u044d\u0442\u0438\u043c \u043f\u0440\u043e\u0434\u0430\u0436\u043d\u044b\u043c \u0436\u0443\u0440\u043d\u0430\u043b\u044e\u0433\u0430\u043c \u043f\u043e \u0431\u0430\u0440\u0430\u0431\u0430\u043d\u0443 \u0437\u0430 \u0431\u0430\u0431\u043b\u043e \u043a\u043e\u0433\u043e \u0433\u0440\u044f\u0437\u044c\u044e \u043f\u043e\u043b\u0438\u0432\u0430\u0442\u044c. \u0412 \u0434\u0430\u043d\u043d\u043e\u043c \u0441\u043b\u0443\u0447\u0430\u0435 \u044f\u0432\u043d\u044b\u0439 \u043f\u0435\u0440\u0435\u0431\u043e\u0440 \u043f\u043e\u043b\u0443\u0447\u0430\u0435\u0442\u0441\u044f.
p33
I-1
tp34
a(V\u043d\u0435 \u0442\u043e\u043b\u044c\u043a\u043e \u0434\u0435\u043f\u0443\u0442\u0430\u0442\u044b \u043b\u0434\u043f\u0440. \u0412\u0421\u0415 \u0434\u0435\u043f\u0443\u0442\u0430\u0442\u044b - \u0431\u0435\u0441\u043f\u043e\u043b\u0435\u0437\u043d\u044b\u0435 \u043a\u043b\u043e\u0443\u043d\u044b !  \u043f\u0440\u043e\u0431\u043b\u0435\u043c\u0430\u043c\u0438 \u0433\u043e\u0441\u0443\u0434\u0430\u0440\u0441\u0442\u0432\u0430 ( \u0432 \u043d\u043e\u0440\u043c\u0430\u043b\u044c\u043d\u044b\u0445 \u0433\u043e\u0441\u0443\u0434\u0430\u0440\u0441\u0442\u0432\u0430\u0445) \u0437\u0430\u043d\u0438\u043c\u0430\u044e\u0442\u0441\u044f \u0443\u0447\u0435\u043d\u044b\u0435 ,\u0430\u043a\u0430\u0434\u0435\u043c\u0438\u043a\u0438 , \u0441\u043e\u043e\u0442\u0432\u0435\u0442\u0441\u0442\u0432\u0443\u044e\u0449\u0435\u0433\u043e \u043f\u0440\u043e\u0444\u0438\u043b\u044f. \u0430 \u0432\u044b \u043f\u043e\u0441\u043c\u043e\u0442\u0440\u0438\u0442\u0435,\u043a\u0442\u043e \u0441\u0438\u0434\u0438\u0442 \u0432 \u043d\u0430\u0448\u0435\u0439 \u0434\u0443\u043c\u0435. \u0432\u043e\u0440\u044b \u0432 \u0437\u0430\u043a\u043e\u043d\u0435 ,\u0430\u0440\u0442\u0438\u0441\u0442\u044b, \u0441\u043f\u043e\u0440\u0442\u0441\u043c\u0435\u043d\u044b \u0438 \u0438\u0436\u0435 \u0441 \u043d\u0438\u043c\u0438 \u0440\u0430\u0437\u043d\u044b\u0435 \u043f\u0440\u043e\u0445\u043e\u0434\u0438\u043c\u0446\u044b.  \u0430 \u043f\u043e\u0442\u043e\u043c \u043c\u044b \u0432\u0441\u0435 \u0443\u0434\u0438\u0432\u043b\u044f\u0435\u043c\u0441\u044f, \u043e\u0442\u043a\u0443\u0434\u0430 \u0431\u0435\u0440\u0443\u0442\u0441\u044f \u0434\u0435\u0431\u0438\u043b\u044c\u043d\u044b\u0435 \u0437\u0430\u043a\u043e\u043d\u044b. \u043a\u0430\u043a\u043e\u0432 \u043f\u043e\u043f,\u0442\u0430\u043a\u043e\u0432 \u0438 \u043f\u0440\u0438\u0445\u043e\u0434.
p35
I-1
tp36
a(V\u0412 \u043d\u0430\u0448\u0435\u0439 \u0441\u0442\u0440\u0430\u043d\u0435 \u043a\u0430\u043a \u0432\u0441\u0435\u0433\u0434\u0430 \u043b\u043e\u0433\u0438\u043a\u043e\u0439 \u0443\u0431\u0438\u0432\u0430\u044e\u0442))) \u0422\u043e, \u0447\u0442\u043e \u043d\u0430 \u0440\u0435\u043a\u043b\u0430\u043c\u043d\u044b\u0439 \u0449\u0438\u0442\u0430\u0445 \u0444\u043e\u0442\u043e \u043f\u043e\u043b\u0443\u0433\u043e\u043b\u044b\u0445 \u0436\u0435\u043d\u0449\u0438\u043d (\u0432\u0438\u043f \u0441\u0430\u043b\u043e\u043d\u044b \u0434\u043b\u044f \u043c\u0443\u0436\u0447\u0438\u043d \u0438 \u0441\u0442\u0440\u0438\u043f\u043a\u043b\u0443\u0431\u044b) - \u044d\u0442\u043e \u043d\u043e\u0440\u043c\u0430, \u0430 \u0440\u0435\u043a\u043b\u0430\u043c\u0430 \u0441\u0440\u0435\u0434\u0441\u0442\u0432 \u043e\u0442 \u043d\u0430\u0441\u043c\u043e\u0440\u043a\u0430 - \u044d\u0442\u043e \u043d\u0435\u043b\u044c\u0437\u044f. \u041e\u043d\u0438 \u0432\u0435\u0434\u044c \u0437\u0430\u043f\u0440\u0435\u0442\u0438\u043b\u0438 \u043d\u0435 \u0442\u043e\u043b\u044c\u043a\u043e \u0440\u0435\u043a\u043b\u0430\u043c\u0443 \u043c\u0435\u0434.\u0443\u0441\u043b\u0443\u0433, \u043d\u043e \u0438 \u043b\u0435\u043a\u0430\u0440\u0441\u0442\u0432 \u0432\u043e\u043e\u0431\u0449\u0435.
p37
I-1
tp38
a(V\u0422\u043e, \u0447\u0442\u043e "\u041e\u043c\u0438\u0447\u0438 \u043f\u043e\u043a\u0443\u043f\u0430\u044e\u0442 \u0441\u0430\u043c\u044b\u0439 \u0434\u0435\u0448\u0435\u0432\u044b\u0439 \u0431\u0435\u043d\u0437\u0438\u043d \u0432 \u0420\u043e\u0441\u0441\u0438\u0438" \u044d\u0442\u043e \u0435\u0449\u0435 \u043f\u043e\u0434 \u0431\u043e\u043b\u044c\u0448\u0438\u043c \u0432\u043e\u043f\u0440\u043e\u0441\u043e\u043c..., \u0430 \u0432\u043e\u0442 \u0442\u043e, \u0447\u0442\u043e \u043e\u043c\u0438\u0447\u0438 \u043f\u043e\u0447\u0442\u0438 60 \u043b\u0435\u0442 \u0434\u044b\u0448\u0430\u0442 \u0433\u0430\u0434\u043e\u0441\u0442\u044c\u044e \u0441 \u043d\u0435\u0444\u0442\u0435\u0437\u0430\u0432\u043e\u0434\u0430 - \u044d\u0442\u043e \u0441\u043e\u043c\u043d\u0435\u043d\u0438\u044e \u043d\u0435 \u043f\u043e\u0434\u043b\u0435\u0436\u0438\u0442...
p39
I-1
tp40
a(V\u041f\u043e\u0444\u0438\u0433\u0438\u0441\u0442\u043e\u0432\u2026
p41
I-1
tp42
a(V\u041a\u0430\u0436\u0434\u044b\u0439 \u043d\u0430 \u0434\u043e\u0440\u043e\u0433\u0435 \u0441\u0447\u0438\u0442\u0430\u0435\u0442 \u0441\u0435\u0431\u044f \u0431\u044b\u0432\u0430\u043b\u044b\u043c. \u0418 \u043f\u0435\u0440\u0435\u0434 \u0444\u0443\u0440\u043e\u0439 \u043f\u0440\u043e\u0441\u043a\u043e\u0447\u0443, \u0438 \u043c\u043e\u0441\u043a\u0432\u0438\u0447 \u043e\u0431\u0433\u043e\u043d\u044e. \u041f\u0440\u0438 \u044d\u0442\u043e\u043c \u0437\u0430\u0431\u044b\u0432\u0430\u044f, \u0447\u0442\u043e \u0443 \u0435\u0434\u0443\u0449\u0438\u0445 \u0442\u043e\u0436\u0435 \u0435\u0441\u0442\u044c \u0441\u0432\u043e\u0438 \u043c\u044b\u0441\u043b\u0438 \u043f\u043e \u043f\u043e\u0432\u043e\u0434\u0443 \u043a\u0430\u043a \u0435\u0445\u0430\u0442\u044c.
p43
I-1
tp44
a(V-3 \u043c\u0438\u043b\u043b\u0438\u0430\u0440\u0434\u0430 $ \u0438\u0437 \u043d\u0430\u0448\u0435\u0433\u043e \u0431\u044e\u0434\u0436\u0435\u0442\u0430. \u0416\u0434\u0451\u043c \u043f\u043e\u0432\u044b\u0448\u0435\u043d\u0438\u044f \u043a\u043e\u043c\u043c\u0443\u043d\u0430\u043b\u043a\u0438.
p45
I-1
tp46
a(V\u0421\u0438\u0434\u044f\u0442 \u0437\u0430\u0441\u0440\u0430\u043d\u0446\u044b \u043d\u0430 \u0448\u0435\u0435 \u0443 \u043d\u0430\u0440\u043e\u0434\u0430, \u0442\u0430\u043a \u0435\u0449\u0435 \u0438 \u043a\u043e\u0448\u0435\u043b\u044c\u043a\u0438 \u0432\u043e\u0440\u0443\u044e\u0442.
p47
I-1
tp48
a(V\u0447\u043e \u0431\u044b \u043d\u0435 \u0434\u0435\u043b\u0430\u0442\u044c-\u043b\u0438\u0448\u044c \u0431\u044b \u043d\u0438 \u0445\u0440\u0435\u043d\u0430 \u043d\u0435 \u0434\u0435\u043b\u0430\u0442\u044c \u0438 \u043b\u0438\u0448\u044c \u0431\u044b \u043b\u0451\u0436\u0430. \u0421\u0432\u043e\u0440\u043e\u0432\u0430\u043b\u0430 5 \u043b\u044f\u043c\u043e\u0432 \u2014 \u0438 \u043d\u0430 \u0441\u0432\u043e\u0431\u043e\u0434\u0435, \u043a\u0440\u0443\u0442\u043e.
p49
I-1
tp50
a(V\u0427\u0442\u043e \u0442\u0430\u043a\u043e\u0435 \u0433. \u0412\u0430\u0440\u043d\u0430\u0432\u0441\u043a\u0438\u0439?  \u041e\u0431\u044b\u0447\u043d\u043e\u0435 \u043d\u0435\u043a\u043e\u0435 \u043f\u043e\u0434\u043e\u0431\u0438\u0435 \u0413\u043b\u0435\u0431\u0430 \u041a\u0430\u043f\u0443\u0441\u0442\u0438\u043d\u0430 \u0438\u0437 \u0440\u0430\u0441\u0441\u043a\u0430\u0437\u0430 \u0428\u0443\u043a\u0448\u0438\u043d\u0430.  \u0418\u043c\u0435\u043b "\u0440\u0430\u0434\u043e\u0441\u0442\u044c" \u043d\u0430\u0431\u043b\u044e\u0434\u0430\u0442\u044c \u044d\u0442\u043e\u0433\u043e \u0433\u043e\u0441\u043f\u043e\u0434\u0438\u043d\u0430 \u0432 \u043e\u0447\u0435\u043d\u044c \u0440\u0430\u0437\u043d\u044b\u0445 \u0438 \u0447\u0430\u0441\u0442\u043d\u044b\u0445 \u0441\u0438\u0442\u0443\u0430\u0446\u0438\u044f\u0445... \u043f\u043e\u0432\u0435\u0434\u0435\u043d\u0438\u0435 "\u0433-\u043d\u0430" \u043a\u0430\u043a \u0432 \u0434\u043e\u0431\u0440\u043e\u0439 \u0440\u0443\u0441\u0441\u043a\u043e\u0439 \u043f\u043e\u0441\u043b\u043e\u0432\u0438\u0446\u0435: "\u041c\u043e\u043b\u043e\u0434\u0435\u0446 \u043f\u0440\u043e\u0442\u0438\u0432 \u043e\u0432\u0435\u0446. \u041f\u0440\u043e\u0442\u0438\u0432 \u043c\u043e\u043b\u043e\u0434\u0446\u0430 \u0441\u0430\u043c \u043e\u0432\u0446\u0430".  \u0423\u0432\u044b!
p51
I-1
tp52
a(V\u041a\u0440\u0443\u043f\u043d\u044b\u0435 \u043f\u0430\u0443\u043a\u0438 \u043d\u0430\u0447\u0438\u043d\u0430\u044e\u0442 \u0436\u0440\u0430\u0442\u044c \u043c\u0435\u043b\u043a\u0438\u0445. \u042d\u0442\u043e \u0440\u0430\u0434\u0443\u0435\u0442.. \u041b\u044e\u0431\u0430\u044f \u043d\u0435\u043f\u0440\u0438\u044f\u0442\u043d\u043e\u0441\u0442\u044c \u044d\u0442\u0438\u0445 \u0443\u043f\u044b\u0440\u044c\u043a\u043e\u0432 \u2014 \u0434\u043e\u0432\u043e\u043b\u044c\u0441\u0442\u0432\u043e \u0434\u043b\u044f \u043e\u0433\u0440\u0430\u0431\u043b\u044f\u0435\u043c\u043e\u0433\u043e \u0438\u043c\u0438 \u043d\u0430\u0440\u043e\u0434\u0430..
p53
I-1
tp54
a(V\u0410 \u043a\u0430\u043a \u043d\u0430\u0441\u0447\u0435\u0442 \u044d\u043a\u043e\u043b\u043e\u0433\u0438\u0447\u043d\u043e\u0441\u0442\u0438 \u043a\u0440\u0435\u043c\u043d\u0438\u0435\u0432\u043e\u0433\u043e \u0437\u0430\u0432\u043e\u0434\u0430 \u0432 \u0447\u0435\u0440\u0442\u0435 \u0433\u043e\u0440\u043e\u0434\u0430?
p55
I-1
tp56
a(V\u0412 \u044d\u0442\u043e\u0439 \u0441\u0432\u044f\u0437\u0438 \u0445\u043e\u0442\u0435\u043b\u043e\u0441\u044c \u0431\u044b \u043f\u0440\u0435\u0434\u0443\u043f\u0440\u0435\u0434\u0438\u0442\u044c, \u0447\u0442\u043e \u0434\u0430\u043b\u044c\u043d\u0435\u0439\u0448\u0438\u0435 \u043f\u0443\u0431\u043b\u0438\u0447\u043d\u044b\u0435 \u0432\u044b\u0441\u043a\u0430\u0437\u044b\u0432\u0430\u043d\u0438\u044f \u043d\u0430 \u044d\u0442\u0443 \u0442\u0435\u043c\u0443, \u043e\u0442 \u043a\u043e\u0433\u043e \u0431\u044b \u043e\u043d\u0438 \u043d\u0438 \u0438\u0441\u0445\u043e\u0434\u0438\u043b\u0438, \u0431\u0443\u0434\u0443\u0442 \u0440\u0430\u0441\u0446\u0435\u043d\u0438\u0432\u0430\u0442\u044c\u0441\u044f \u0441\u0442\u043e\u0440\u043e\u043d\u043e\u0439 \u0437\u0430\u0449\u0438\u0442\u044b \u043a\u0430\u043a \u043a\u043b\u0435\u0432\u0435\u0442\u0430 \u043d\u0430 \u0447\u0435\u0441\u0442\u043d\u043e\u0435 \u0438\u043c\u044f \u0438 \u0434\u043e\u0441\u0442\u043e\u0438\u043d\u0441\u0442\u0432\u043e \u0438\u0437\u0432\u0435\u0441\u0442\u043d\u043e\u0433\u043e \u043e\u043c\u0441\u043a\u043e\u0433\u043e \u0431\u043e\u043a\u0441\u0435\u0440\u0430 \u0418\u0432\u0430\u043d\u0430 \u041a\u043b\u0438\u043c\u043e\u0432\u0430, \u0447\u0442\u043e \u0434\u0430\u0435\u0442 \u043f\u043e\u0432\u043e\u0434 \u043f\u0440\u0435\u0434\u043f\u0440\u0438\u043d\u044f\u0442\u044c \u043c\u0435\u0440\u044b \u0443\u0433\u043e\u043b\u043e\u0432\u043d\u043e\u0433\u043e \u043f\u0440\u0435\u0441\u043b\u0435\u0434\u043e\u0432\u0430\u043d\u0438\u044f. ___________ \u0418 \u0434\u0430\u0436\u0435 \u043f\u043e\u043b\u043e\u0436\u0438\u0442\u0435\u043b\u044c\u043d\u044b\u0435, \u0432\u043e\u043f\u0440\u043e\u0441\u0438\u0442\u0435\u043b\u044c\u043d\u044b\u0435 \u0438 \u043d\u0435\u0439\u0442\u0440\u0430\u043b\u044c\u043d\u044b\u0435? \u041a\u0442\u043e \u0438 \u043a\u0430\u043a \u0431\u0443\u0434\u0435\u0442 \u0440\u0435\u0448\u0430\u0442\u044c, \u0447\u0442\u043e \u0432\u044b\u0441\u043a\u0430\u0437\u044b\u0432\u0430\u043d\u0438\u0435 \u043d\u0435\u0439\u0442\u0440\u0430\u043b\u044c\u043d\u043e?
p57
I0
tp58
a(V\u0411\u0435\u0441\u0448\u0442\u0430\u043d\u044c\u043a\u043e \u0436\u0435\u043b\u0430\u044e \u0443\u0434\u0430\u0447\u0438. \u0427\u0442\u043e \u0442\u043e \u0432 \u043d\u0435\u043c \u0435\u0441\u0442\u044c \u0442\u0430\u043a\u043e\u0435, \u0447\u0435\u0433\u043e \u043d\u0435\u0442 \u0432\u043e \u0432\u0441\u0435\u0445 \u0447\u0438\u043d\u043e\u0432\u043d\u0438\u043a\u0430\u0445. \u041d\u0435\u0440\u0430\u0432\u043d\u043e\u0434\u0443\u0448\u0438\u0435, \u043d\u0430\u0432\u0435\u0440\u043d\u043e\u0435.
p59
I1
tp60
a(V\u041d\u0430\u0448\u0438\u043c \u0432\u0435\u043b\u0438\u043a\u0438\u043c \u043f\u0438\u0441\u0430\u0442\u0435\u043b\u044f\u043c \u0434\u0435\u0448\u0435\u0432\u044b\u0445 \u0441\u0442\u0430\u0442\u0435\u0435\u043a \u0438 \u0438\u0445 \u043a\u043e\u043c\u043c\u0435\u043d\u0442\u0430\u0442\u043e\u0440\u0430\u043c \u0442\u043e\u0436\u0435 \u043d\u0435 \u043f\u043e\u043c\u0435\u0448\u0430\u043b\u043e \u0431\u044b \u043a\u043e\u0441\u0442\u0438 \u0440\u0430\u0437\u043c\u044f\u0442\u044c. \u041c\u043e\u0436\u0435\u0442 \u0436\u0435\u043b\u0447\u0438 \u043f\u043e\u0443\u0431\u0430\u0432\u0438\u0442\u0441\u044f.
p61
I-1
tp62
a(V\u041d\u0410\u0422\u0410\u0428\u0410 \u0414\u0410\u0412\u041d\u041e \u041f\u0415\u0420\u0415\u0420\u041e\u0421\u041b\u0410 \u041e\u041c\u0421\u041a. \u0422\u0410\u041b\u0410\u041d\u0422\u041b\u0418\u0412\u0410\u042f \u0414\u0415\u0412\u0423\u0428\u041a\u0410. \u041d\u0410\u0414\u0415\u042e\u0421\u042c \u0427\u0422\u041e \u0412 \u0415\u041a\u0411 \u0411\u0423\u0414\u0415\u0422 \u0428\u0410\u041d\u0421 \u0412\u042b\u0420\u0412\u0410\u0422\u042c\u0421\u042f \u0418\u0417 \u0420\u0415\u0421\u0422\u041e\u0420\u0410\u041d\u041e\u0412 \u041d\u0410 \u0427\u0422\u041e\u0422\u041e \u0411\u041e\u041b\u0415\u0415 \u0414\u041e\u0421\u0422\u041e\u0419\u041d\u041e\u0415! \u0423\u0414\u0410\u0427\u0418!
p63
I1
tp64
a(V\u041d\u0415  \u0412\u0415\u0420\u042e!!!!!!!
p65
I-1
tp66
a(V\u043f\u043e\u043d\u044f\u0442\u044c, \u043a\u0442\u043e \u0441\u0442\u043e\u0438\u0442 \u043e\u0447\u0435\u043d\u044c \u043f\u0440\u043e\u0441\u0442\u043e. \u042d\u0442\u043e \u0442\u043e\u0442 \u0436\u0435, \u043a\u0442\u043e \u0441\u0442\u043e\u0438\u0442 \u0437\u0430 \u043a\u043e\u043c\u043f\u0430\u043d\u0438\u0435\u0439 \u041e\u043c\u0441\u043a\u0438\u0435 \u043a\u0430\u0431\u0435\u043b\u044c\u043d\u044b\u0435 \u0441\u0435\u0442\u0438. \u041a\u0442\u043e \u0441\u0442\u043e\u0438\u0442 \u0432 \u041e\u043a\u0442\u044f\u0431\u0440\u044c\u0441\u043a\u043e\u043c \u043f\u0430\u0440\u043a\u0435 \u0438 \u0442.\u0434.
p67
I0
tp68
a(V\u0441\u044b\u043d \u043f\u0440\u0438\u0448\u0435\u043b \u0441 \u0430\u0440\u043c\u0438\u0438 \u0434\u043e\u043c\u0430 2 \u043d\u043e\u0447\u0438 \u043d\u0435 \u043d\u043e\u0447\u0435\u0432\u0430\u043b \u0442\u0430\u043a \u044f \u043e\u0442\u043f\u0440\u0430\u0432\u0438\u043b\u0430 \u0435\u0433\u043e \u0442\u0443\u0434\u0430 \u0433\u0434\u0435 \u0431\u044b\u043b \u0441\u0440\u0430\u0437\u0443 \u0436\u0435\u043d\u0438\u043b\u0441\u044f \u0443\u0436\u0435 3 \u0432\u043d\u0443\u043a\u0430 \u0438 \u0432\u0441\u0435 \u0443 \u043d\u0438\u0445 \u0445\u043e\u0440\u043e\u0448\u043e \u0433\u043b\u0430\u0432\u043d\u043e\u0435 \u0436\u0438\u043b\u044c\u0435 \u0443 \u043d\u0435\u0433\u043e \u0431\u044b\u043b\u043e
p69
I1
tp70
a(V\u0442\u0430\u043b\u044b\u0437\u0438\u043d\u0430 \u0438 \u0432 \u043c\u0443\u0437\u044b\u043a\u0435 \u0441\u0435\u0447\u0451\u0442? \u043a\u0430\u0437\u0430\u043b\u043e\u0441\u044c, \u0447\u0442\u043e \u0442\u043e\u043b\u044c\u043a\u043e \u0432 \u043e\u043f\u0442\u0438\u043a\u0435.\u0431\u0435\u0437 \u0434\u0438\u043e\u043f\u0442\u0440\u0438\u0439.
p71
I0
tp72
a(V\u0414\u0430 \u043d\u0438\u043a\u043e\u0433\u043e \u044d\u0442\u043e \u043d\u0435 \u043e\u0441\u0442\u0430\u043d\u043e\u0432\u0438\u0442. \u0415\u0441\u043b\u0438 \u0434\u0430\u0436\u0435 \u043d\u0430\u043f\u0440\u043e\u0442\u0438\u0432 \u041c\u044d\u0440\u0438\u0438 (\u0442\u0430\u043c \u0438 \u043a\u0430\u043c\u0435\u0440\u044b \u0443\u0441\u0442\u0430\u043d\u043e\u0432\u043b\u0435\u043d\u044b) \u043f\u043e\u0441\u0442\u043e\u044f\u043d\u043d\u043e \u043c\u0430\u0448\u0438\u043d\u044b \u043d\u0435\u0441\u0443\u0442\u0441\u044f, \u0441\u0442\u0440\u0435\u043c\u044f\u0441\u044c \u0443\u0441\u043f\u0435\u0442\u044c \u043f\u0440\u043e\u0441\u043a\u043e\u0447\u0438\u0442\u044c \u043d\u0430 \u0436\u0435\u043b\u0442\u044b\u0439, \u043a\u043e\u0433\u0434\u0430 \u0434\u043b\u044f \u043f\u0435\u0448\u0435\u0445\u043e\u0434\u043e\u0432 \u0443\u0436\u0435 \u0433\u043e\u0440\u0438\u0442 \u0437\u0435\u043b\u0435\u043d\u044b\u0439 \u0438 \u043d\u0430\u0440\u043e\u0434 \u043f\u0435\u0440\u0435\u0445\u043e\u0434\u0438\u0442 \u0434\u043e\u0440\u043e\u0433\u0443.
p73
I-1
tp74
a(V\u041c\u043e\u0437\u0433\u0438 \u0431\u044b \u0438\u043c \u043b\u0443\u0447\u0448\u0435 \u043a\u0442\u043e-\u043d\u0438\u0431\u0443\u0434\u044c \u043f\u043e\u0434\u0430\u0440\u0438\u043b
p75
I-1
tp76
a(V\u2026 \u0434\u043b\u044f \u043c\u043d\u043e\u0433\u0438\u0445, \u0442\u043e\u0435\u0441\u0442\u044c!
p77
I0
tp78
a(V\u0422\u0430\u043a \u044d\u0442\u043e \u0435\u0433\u043e \u043c\u0430\u0442\u044c \u043f\u0440\u0435\u043f\u043e\u0434\u0430\u0435\u0442 \u043d\u0430 \u044e\u0440\u0444\u0430\u043a\u0435? \u0425\u043e\u0440\u043e\u0448\u0430\u044f \u0436\u0435\u043d\u0449\u0438\u043d\u0430, \u043c\u044f\u0433\u043a\u0430\u044f.. \u0416\u0430\u043b\u044c \u0435\u0435. A \u0432\u044b \u043f\u0440\u0435\u043a\u0440\u0430\u0442\u0438\u0442\u0435 \u0437\u0432\u0435\u0440\u0435\u0442\u044c. \u0412\u0441\u0435 \u044d\u0442\u0438 \u0448\u0443\u0442\u043e\u0447\u043a\u0438 \u043e \u0431\u0430\u043d\u043a\u0430\u0445 \u0442\u0443\u0448\u0435\u043d\u043a\u0438 \u043e \u0432\u0430\u0448\u0435\u0439 \u043d\u0438\u0437\u043e\u0441\u0442\u0438 \u0436\u0435 \u0438 \u0433\u043e\u0432\u043e\u0440\u044f\u0442. \u0415\u0441\u043b\u0438 \u043e\u043d \u043d\u0430\u0434\u0435\u043b\u0430\u043b \u0434\u0435\u043b \u2014 \u043f\u0443\u0441\u0442\u044c \u0431\u0443\u0434\u0435\u0442 \u043d\u0430\u043a\u0430\u0437\u0430\u043d, a \u0438\u0437\u0434\u0435\u0432\u0430\u044e\u0442\u0441\u044f \u043d\u0430\u0434 \u043f\u0430\u0434\u0448\u0438\u043c \u0442\u043e\u043b\u044c\u043a\u043e \u0438\u0437\u0432\u0440\u0430\u0449\u0435\u043d\u0446\u044b. \u0422\u0435\u043c \u0431\u043e\u043b\u0435\u0435 \u043f\u0440\u0435\u043b\u044e\u0434\u043d\u043e, \u0437\u0430\u0441\u0442\u0430\u0432\u043b\u044f\u044f \u0441\u0442\u0440\u0430\u0434\u0430\u0442\u044c \u0440\u043e\u0434\u0441\u0442\u0432\u0435\u043d\u043d\u0438\u043a\u043e\u0432. \u0418 \u0437\u0430\u0447\u0435\u043c \u043e \u0435\u0433\u043e \u0436\u0435\u043d\u0435 \u0432\u044b\u043a\u043b\u0430\u0434\u044b\u0432\u0430\u0442\u044c \u0438\u043d\u0444\u0443? \u041e\u043d\u0430 \u0447\u0442\u043e, \u043f\u0440\u0438\u0447\u0430\u0441\u0442\u043d\u0430 \u043a \u043f\u0440\u0435\u0441\u0442\u0443\u043f\u043d\u043e\u0439 \u0434\u0435\u044f\u0442\u0435\u043b\u044c\u043d\u043e\u0441\u0442\u0438? \u041f\u0443\u0441\u0442\u044c \u0441 \u043d\u0435\u0439 \u0442\u043e\u0433\u0434\u0430 \u043f\u043e\u043b\u0438\u0446\u0438\u044f \u0440\u0430\u0437\u0433\u043e\u0432\u0430\u0440\u0438\u0432\u0430\u0435\u0442 \u043d\u0430\u0435\u0434\u0438\u043d\u0435. \u0413\u043e\u0432\u043e\u0440\u044f \u043e \u043d\u0435\u0439 \u043f\u0443\u0431\u043b\u0438\u0447\u043d\u043e, \u0432\u044b \u0435\u0435 \u0437\u0430\u0442\u0430\u0441\u043a\u0438\u0432\u0430\u0435\u0442\u0435 \u0432 \u043a\u043e\u043c\u043c\u0435\u043d\u0442\u044b, a \u0437\u0434\u0435\u0441\u044c \u0432\u0441\u044f\u043a\u0438\u0435 \u0443\u0440\u043e\u0434\u044b \u0438\u0437\u0432\u0440\u0430\u0449\u0430\u044e\u0442\u0441\u044f \u043d\u0430\u0441\u0447\u0435\u0442 \u0442\u0443\u0448\u0435\u043d\u043a\u0438. \u042d\u0442\u043e \u0436\u0435 \u043f\u044b\u0442\u043a\u0430.. \u0412\u0430\u043c \u0447\u0442\u043e, \u0434\u043e\u0441\u0442\u0430\u0432\u043b\u044f\u0435\u0442? \u041d\u0435\u0434\u043e\u0447\u0435\u043b\u043e\u0432\u0435\u043a\u0438.
p79
I-1
tp80
a(V\u0410\u043d\u0434\u0440\u0435\u044e \u0431\u044b\u043b\u043e 13 \u043b\u0435\u0442 \u0438 \u0437\u043d\u0430\u0435\u0442\u0435, \u0432 \u0442\u0430\u043a\u043e\u043c \u0432\u043e\u0437\u0440\u0430\u0441\u0442\u0435 \u043d\u0430\u0441 \u043d\u0435 \u0437\u0430\u0438\u043d\u0442\u0435\u0440\u0435\u0441\u0443\u0435\u0448\u044c \u0441\u043f\u043e\u0440\u0442.\u043f\u043b\u043e\u0449\u0430\u0434\u043a\u043e\u0439. \u041d\u0430 \u043d\u0430\u0448\u0435\u0439 \u0443\u043b\u0438\u0446\u0435, \u0433\u0434\u0435 \u044d\u0442\u043e \u043f\u0440\u043e\u0438\u0437\u043e\u0448\u043b\u043e, \u0434\u0430\u0436\u0435 \u0434\u043e\u0440\u043e\u0433 \u043d\u0435\u0442. \u041e \u043a\u0430\u043a\u0438\u0445 \u043f\u043b\u043e\u0449\u0430\u0434\u043a\u0430\u0445 \u0438\u0434\u0435\u0442 \u0440\u0435\u0447\u044c?!
p81
I-1
tp82
a(V\u0434\u0430\u0432\u043d\u043e \u043f\u043e\u0440\u0430 \u0437\u0434\u0435\u043b\u0430\u0442\u044c \u043f\u0430\u0440\u0430\u043f\u0435\u0442\u044b \u0443\u0436\u0435 \u043d\u0435 \u043e\u0434\u0438\u043d \u0440\u0430\u0437 \u0442\u0443\u0434\u0430 \u0441\u0432\u0430\u043b\u0438\u0432\u0430\u044e\u0442\u0441\u0430 \u0438 \u0442\u0440\u043e\u043b\u043b\u0435\u0439\u0431\u0443\u0441\u044b \u0438 \u0430\u0432\u0442\u043e\u0431\u0443\u0441\u044b. \u0434\u0430\u0436\u0435 \u043f\u043e \u043d\u043e\u0440\u043c\u0430\u0442\u0438\u0432\u0430\u043c \u043f\u043e\u043b\u043e\u0436\u0435\u043d\u043e \u0447\u0442\u043e\u0431 \u0431\u044b\u043b\u0438 \u043e\u0433\u0440\u0430\u0436\u0434\u0435\u043d\u0438\u044f.
p83
I-1
tp84
a(V\u043d\u0443 \u0442\u0430\u043a \u043e\u043d\u043e \u0438 \u0435\u0441\u0442\u044c . \u043b\u043e\u0434\u044b\u0440\u0438 \u0438 \u043f\u0440\u0438\u0434\u0443\u043c\u044b\u0432\u0430\u044e\u0442,\u0432\u0441\u044e \u044d\u0442\u0443 \u0431\u0440\u0435\u0434\u044f\u0442\u0438\u043d\u0443,\u0447\u0442\u043e \u0431\u044b \u043f\u043e\u043a\u0430\u0437\u0430\u0442\u044c,\u043a\u0430\u043a \u043e\u043d\u0438 "\u0431\u043e\u043b\u0435\u044e\u0442" \u0437\u0430 \u043b\u044e\u0434\u0435\u0439.
p85
I-1
tp86
a(V\u0442\u0443\u043f\u043e\u0439 \u0433\u043e\u0440\u043e\u0434\u0441\u043a\u043e\u0439 \u043e\u0441\u0451\u043b \u0438\u0434\u0438 \u0441\u0432\u043e\u0438\u043c \u0441\u043b\u0435\u0434\u043e\u043c \u043d\u0430\u0437\u0430\u0434 \u0443\u043c\u0430 \u043c\u043d\u043e\u0433\u043e \u043d\u0435 \u043d\u0430\u0434\u043e
p87
I-1
tp88
a(V\u0438 \u043a\u0430\u043a \u0432 \u043f\u0440\u043e\u0448\u043b\u043e\u043c \u0433\u043e\u0434\u0443 \u043e\u043c\u0441\u043a\u0443\u044e \u043f\u0440\u0435\u0441\u0441\u0443 \u043d\u0435 \u0430\u043a\u043a\u0440\u0435\u0434\u0438\u0442\u0443\u044e\u0442, \u0437\u0430\u0442\u043e \u043c\u043e\u0441\u043a\u0432\u0438\u0447\u0438 \u043e\u043f\u044f\u0442\u044c \u0443\u0441\u0442\u0440\u043e\u044f\u0442 \u0441\u0435\u0431\u0435 \u0432\u043e\u044f\u0436 \u0432 \u0441\u0438\u0431\u0438\u0440\u044c \u2014 \u0432\u043e\u0434\u043e\u0447\u043a\u0438 \u043f\u043e\u043f\u0438\u0442\u044c \u043d\u0430 \u0445\u0430\u043b\u044f\u0432\u0443 \u0438 \u043d\u043e\u0432\u044b\u0435 \u0444\u0438\u043b\u044c\u043c\u044b \u043f\u043e\u0441\u043c\u043e\u0442\u0440\u0435\u0442\u044c, \u043f\u0440\u0438 \u044d\u0442\u043e\u043c \u043f\u0440\u0435\u0437\u0440\u0438\u0442\u0435\u043b\u044c\u043d\u043e \u043f\u043e\u0441\u043c\u0430\u0442\u0440\u0438\u0432\u0430\u044f \u043d\u0430 \u0445\u043e\u0437\u044f\u0435\u0432.
p89
I-1
tp90
a(V\u0410 \u0432\u0435\u0434\u044c \u043f\u0438\u0441\u0430\u043b\u0438, \u0447\u0442\u043e \u043e\u0447\u0435\u0432\u0438\u0434\u0446\u044b \u0433\u043e\u0432\u043e\u0440\u0438\u043b\u0438, \u0447\u0442\u043e \u0434\u0435\u0432\u043e\u0447\u043a\u0430 \u0431\u0430\u043b\u043e\u0432\u0430\u043b\u0430\u0441\u044c, \u0438 \u0443\u0441\u043f\u0435\u043b\u0430 \u0435\u0451 \u0442\u0451\u0442\u044f \u0438\u0437 \u0430\u0432\u0442\u043e\u0431\u0443\u0441\u0430 \u0441\u043d\u044f\u0442\u044c... \u0412 \u043e\u0431\u0449\u0435\u043c \u0432\u0441\u0451 \u043c\u0435\u043d\u044f\u0435\u0442\u0441\u044f, \u043f\u0440\u0430\u0432\u0434\u0430 \u0442\u043e\u0436\u0435...
p91
I-1
tp92
a(VRR, \u0432\u044b \u0432 \u0442\u0430\u043a\u0438\u0445 \u0441\u0438\u0442\u0443\u0430\u0446\u0438\u044f\u0445 \u0441\u0430\u043c\u0438 \u043b\u0438\u0447\u043d\u043e \u0432\u0438\u0434\u0438\u043c\u043e \u043d\u0435 \u0431\u044b\u0432\u0430\u043b\u0438 \u0438 \u0440\u0430\u0441\u0447\u0438\u0442\u044b\u0432\u0430\u0435\u0442\u0435 \u0447\u0442\u043e \u0432\u0430\u043c \u043b\u0438\u0447\u043d\u043e \u0438 \u0432\u043f\u0440\u0435\u0434\u044c \u0443\u0434\u0430\u0441\u0442\u0441\u044f \u044d\u0442\u043e\u0433\u043e \u0438\u0437\u0431\u0435\u0436\u0430\u0442\u044c. \u0418\u043d\u0430\u0447\u0435 \u043f\u043e\u043d\u0438\u043c\u0430\u043b\u0438 \u0431\u044b, \u0447\u0442\u043e \u0434\u0435\u043b\u043e \u044d\u0442\u043e \u0441\u043e\u0432\u0441\u0435\u043c \u043d\u0435 \u0448\u0443\u0442\u043e\u0447\u043d\u043e\u0435.
p93
I-1
tp94
a(V\u0414\u0430 \u043d\u0430 \u0444\u043e\u0442\u043e\u0433\u0440\u0430\u0444\u0438\u044f\u0445 \u0442\u0430\u043a\u0438\u0435 \u0440\u044b\u043b\u0430.
p95
I-1
tp96
a(V\u0412\u0441\u0435\u043c \u0443\u0431\u0438\u0439\u0446\u0430\u043c. \u0412\u0441\u0442\u0440\u0435\u0442\u0438\u0442\u044c\u0441\u044f \u0431\u044b \u0441 \u0442\u043e\u0431\u043e\u0439 \u043c\u0443\u0434\u0438\u043b\u043e \u0438 \u0432\u0441\u0430\u0434\u0438\u0442\u044c \u0432 \u0442\u0435\u0431\u044f \u044d\u0442\u043e\u0433\u043e \u044f\u0434\u0443, \u043f\u043e\u0441\u043c\u043e\u0442\u0440\u0435\u0442\u044c \u043a\u0430\u043a \u0442\u044b \u043a\u043e\u0440\u0447\u0438\u0442\u044c\u0441\u044f \u0431\u0443\u0434\u0435\u0448\u044c, \u043a\u0430\u043a \u0431\u043b\u044e\u0432\u0430\u0442\u044c \u0431\u0443\u0434\u0435\u0448\u044c \u0441\u0432\u043e\u0438\u043c\u0438 \u043a\u0438\u0448\u043a\u0430\u043c\u0438 \u0442\u0432\u0430\u0440\u044c!!! \u0412\u044b \u0436\u0435 \u0432\u0438\u0434\u0435\u043b\u0438 \u044d\u0442\u043e! \u041d\u0435\u0443\u0436\u0435\u043b\u0438 \u043d\u0438 \u0447\u0435\u0433\u043e \u043d\u0435 \u0451\u043a\u0430\u0435\u0442? \u0415\u0441\u043b\u0438 \u043d\u0435\u0442 \u0442\u043e \u0432\u0430\u043c \u0440\u0435\u0430\u043b\u044c\u043d\u043e \u043d\u0443\u0436\u043d\u0430 \u043f\u043e\u043c\u043e\u0449\u044c\u2026\u0433\u043e\u043b\u043e\u0432\u0443 \u043f\u043e\u0434\u043b\u0435\u0447\u0438\u0442\u044c! \u0412\u0430\u043c \u043f\u043e\u043b\u044e\u0431\u043e\u043c\u0443 \u044d\u0442\u043e \u0437\u0430\u0447\u0442\u0435\u0442\u0441\u044f, \u0430 \u0435\u0441\u043b\u0438 \u043d\u0435 \u0432\u0430\u043c \u0442\u043e \u0432\u0430\u0448\u0438\u043c \u0431\u043b\u0438\u0437\u043a\u0438\u043c\u0438 \u0438\u043b\u0438 \u0434\u0435\u0442\u044f\u043c! \u0413\u043e\u0440\u0435\u0442\u044c \u0432\u0430\u043c \u0432 \u0430\u0434\u0443 \u0441\u0432\u043e\u043b\u043e\u0447\u0438!!!
p97
I-1
tp98
a(V\u0427\u0442\u043e \u0437\u0430 \u0442\u0430\u0439\u043d\u044b? \u0421\u0442\u0440\u0430\u043d\u0430 \u0434\u043e\u043b\u0436\u043d\u0430 \u0437\u043d\u0430\u0442\u044c \u0441\u0432\u043e\u0438\u0445 \u0433\u0435\u0440\u043e\u0435\u0432! \u0410 \u0442\u043e \u043a\u0430\u043a \u0432\u0441\u0435\u0433\u0434\u0430, \u043d\u0435 \u043d\u0430\u0434\u043e \u043a\u043e\u0448\u043c\u0430\u0440\u0438\u0442\u044c \u0431\u0438\u0437\u043d\u0435\u0441, \u0430 \u0441\u0442\u0440\u0430\u0434\u0430\u044e\u0442 \u043f\u0440\u043e\u0441\u0442\u044b\u0435 \u043b\u044e\u0434\u0438!
p99
I-1
tp100
a(V\u041f\u0440\u0435\u0434\u0432\u043e\u0434\u0438\u0442\u0435\u043b\u044c \u041b\u0443\u0433\u0430\u043d\u0441\u043a\u043e\u0439 \u043d\u0430\u0440\u043e\u0434\u043d\u043e\u0439 \u0440\u0435\u0441\u043f\u0443\u0431\u043b\u0438\u043a\u0438 (\u041b\u041d\u0420) \u0412\u0430\u043b\u0435\u0440\u0438\u0439 \u0411\u043e\u043b\u043e\u0442\u043e\u0432 \u043e\u0431\u044a\u044f\u0432\u0438\u043b \u0432\u043e\u0439\u043d\u0443 \u0440\u0443\u043a\u043e\u0432\u043e\u0434\u0441\u0442\u0432\u0443 \u0414\u043e\u043d\u0435\u0446\u043a\u043e\u0439 \u043d\u0430\u0440\u043e\u0434\u043d\u043e\u0439 \u0440\u0435\u0441\u043f\u0443\u0431\u043b\u0438\u043a\u0438 (\u0414\u041d\u0420). \u041e\u0431 \u044d\u0442\u043e\u043c \u0441\u043e\u043e\u0431\u0449\u0430\u0435\u0442 \u0423\u041d\u041d \u0441\u043e \u0441\u0441\u044b\u043b\u043a\u043e\u0439 \u043d\u0430 \u043f\u0440\u0435\u0441\u0441-\u0441\u043b\u0443\u0436\u0431\u0443 \u0411\u043e\u043b\u043e\u0442\u043e\u0432\u0430. \u0411\u043e\u043b\u043e\u0442\u043e\u0432 \u0441\u0447\u0438\u0442\u0430\u0435\u0442, \u0447\u0442\u043e \u0437\u0430\u0447\u0438\u0441\u0442\u043a\u0430 \u0414\u043e\u043d\u0435\u0446\u043a\u0430 \u0441\u0438\u043b\u0430\u043c\u0438 \u0410\u0422\u041e \u0438 \u0441\u0434\u0430\u0447\u0430 \u0433\u043e\u0440\u043e\u0434\u0430 \u0443\u043a\u0440\u0430\u0438\u043d\u0441\u043a\u043e\u0439 \u0430\u0440\u043c\u0438\u0438 \u2014 \u044d\u0442\u043e \u043f\u0440\u0435\u0441\u0442\u0443\u043f\u043b\u0435\u043d\u0438\u0435 \u0433\u043b\u0430\u0432\u044b \u0414\u041d\u0420 \u0414\u0435\u043d\u0438\u0441\u0430 \u041f\u0443\u0448\u0438\u043b\u0438\u043d\u0430 \u043f\u0440\u043e\u0442\u0438\u0432 \u0441\u043e\u0431\u0441\u0442\u0432\u0435\u043d\u043d\u043e\u0433\u043e \u043d\u0430\u0440\u043e\u0434\u0430. "\u041d\u0430 \u0442\u0435\u0440\u0440\u0438\u0442\u043e\u0440\u0438\u0438 \u041b\u041d\u0420 \u0414\u0435\u043d\u0438\u0441 \u041f\u0443\u0448\u0438\u043b\u0438\u043d \u0438 \u0435\u0433\u043e \u0431\u043b\u0438\u0436\u0430\u0439\u0448\u0435\u0435 \u043e\u043a\u0440\u0443\u0436\u0435\u043d\u0438\u0435 \u0441\u0447\u0438\u0442\u0430\u044e\u0442\u0441\u044f \u043f\u0440\u0435\u0434\u0430\u0442\u0435\u043b\u044f\u043c\u0438 \u0438 \u043f\u0435\u0440\u0441\u043e\u043d\u0430\u043c\u0438 \u043d\u043e\u043d-\u0433\u0440\u0430\u0442\u0430. \u041f\u043e \u0437\u0430\u043a\u043e\u043d\u0430\u043c \u0432\u043e\u0435\u043d\u043d\u043e\u0433\u043e \u0432\u0440\u0435\u043c\u0435\u043d\u0438, \u043a\u0430\u043a \u043f\u0440\u0435\u0434\u0430\u0442\u0435\u043b\u0438 \u0441\u043e\u0431\u0441\u0442\u0432\u0435\u043d\u043d\u043e\u0433\u043e \u043d\u0430\u0440\u043e\u0434\u0430 \u043e\u043d\u0438 \u043f\u043e\u0434\u043b\u0435\u0436\u0430\u0442 \u043b\u0438\u043a\u0432\u0438\u0434\u0430\u0446\u0438\u0438", \u2014 \u043f\u043e\u0434\u0447\u0435\u0440\u043a\u043d\u0443\u043b \u0433\u043b\u0430\u0432\u0430 \u041b\u041d\u0420. \u041e\u043d \u0442\u0430\u043a\u0436\u0435 \u0434\u043e\u0431\u0430\u0432\u0438\u043b, \u0447\u0442\u043e \u0441\u0447\u0438\u0442\u0430\u0435\u0442 \u0433\u043b\u0430\u0432\u0443 \u0414\u041d\u0420 \u0447\u0435\u043b\u043e\u0432\u0435\u043a\u043e\u043c \u0432\u043d\u0435 \u0437\u0430\u043a\u043e\u043d\u0430 \u0438 \u043e\u0431\u044a\u044f\u0432\u043b\u044f\u0435\u0442 \u0435\u043c\u0443 \u0432\u043e\u0439\u043d\u0443\u2026 \u0420\u0430\u043d\u0435\u0435 \u0441\u043e\u043e\u0431\u0449\u0430\u043b\u043e\u0441\u044c, \u0447\u0442\u043e \u0432 \u0414\u041d\u0420 \u043d\u0430\u0447\u0430\u043b\u0438\u0441\u044c \u0432\u043d\u0443\u0442\u0440\u0435\u043d\u043d\u0438\u0435 \u043a\u043e\u043d\u0444\u043b\u0438\u043a\u0442\u044b \u043c\u0435\u0436\u0434\u0443 \u0441\u0442\u043e\u0440\u043e\u043d\u043d\u0438\u043a\u0430\u043c\u0438 \u043e\u0444\u0438\u0446\u0435\u0440\u0430 \u0440\u043e\u0441\u0441\u0438\u0439\u0441\u043a\u043e\u0433\u043e \u0413\u0420\u0423 \u0418\u0433\u043e\u0440\u044f \u0421\u0442\u0440\u0435\u043b\u043a\u043e\u0432\u0430 \u0438 \u043c\u0435\u0441\u0442\u043d\u044b\u043c\u0438 \u2014 \u0442\u0430\u043a \u043d\u0430\u0437\u044b\u0432\u0430\u0435\u043c\u044b\u043c\u0438 "\u0433\u043e\u0440\u043b\u043e\u0432\u0441\u043a\u0438\u043c\u0438".
p101
I0
tp102
a(V\u0423\u0449\u0435\u0440\u0431 200 \u0442\u044b\u0441\u044f\u0447, \u043f\u043e\u0442\u043e\u043c\u0443 \u0447\u0442\u043e \u044d\u0442\u043e \u043d\u0435 \u0430\u0432\u0442\u043e\u043c\u043e\u0431\u0438\u043b\u044c, \u0430 \u043a\u0438\u0442\u0430\u0439\u0441\u043a\u0430\u044f \u043f\u043e\u0432\u043e\u0437\u043a\u0430 \u0438\u0437 \u0444\u043e\u043b\u044c\u0433\u0438, \u043f\u043e \u043d\u0435\u0434\u043e\u0440\u0430\u0437\u0443\u043c\u0435\u043d\u0438\u044e \u043f\u0440\u0438\u043d\u0438\u043c\u0430\u0435\u043c\u0430\u044f \u0437\u0430 \u043c\u0430\u0448\u0438\u043d\u0443. \u0415\u0449\u0451 \u0438 \u043c\u043d\u043e\u0433\u043e \u043d\u0430\u0447\u0438\u0442\u0430\u043b\u0438 \u0443\u0449\u0435\u0440\u0431\u0430, \u044f \u0434\u0443\u043c\u0430\u044e.
p103
I0
tp104
a(V\u0414\u0430,\u041b\u043e\u043b\u0438\u0442\u0430 \u0436\u0435 \u043f\u043e\u0448\u0443\u0442\u0438\u043b\u0430,\u043d\u0430\u0432\u0435\u0440\u043d\u043e\u0435,\u0442\u0430\u043a...
p105
I0
tp106
a(V\u041d\u0435 \u0445\u0440\u0435\u043d \u0431\u044b\u043b\u043e \u0437\u0430\u043b\u0430\u0437\u0438\u0442\u044c \u0432 \u044d\u0442\u0443 \u043e\u0431\u0449\u0435\u0441\u0442\u0432\u0435\u043d\u043d\u0443\u044e \u043f\u0430\u043b\u0430\u0442\u0443, \u0432\u0441\u0435 \u043a\u043e\u0440\u043e\u0447\u043a\u0438 \u043a\u0440\u0430\u0441\u0438\u0432\u044b\u0435 \u0445\u043e\u0447\u0435\u0442\u0441\u044f \u0432 \u043a\u0430\u0440\u043c\u0430\u043d\u0435 \u043d\u043e\u0441\u0438\u0442\u044c\u2026
p107
I-1
tp108
a(V\u041b\u0438\u0437\u0430, \u0434\u0443\u0448\u0430 \u043c\u043e\u044f, \u0432 \u0442\u0435\u043a\u0441\u0442\u0435 \u043e\u0442\u0432\u0435\u0442\u0430 \u0433-\u043d\u0430 \u0413\u0440\u0438\u0433\u0443\u0440\u043a\u043e \u0442\u0430\u043a: "30\u201332. (\u0442\u043e\u0447\u043a\u0430)\u0415\u0436\u0435\u0434\u043d\u0435\u0432\u043d\u043e. \u0411\u044b\u0432\u0430\u0435\u0442 \u0434\u0430\u0436\u0435 \u043f\u043e \u0434\u0432\u0430 \u2014 \u0443\u0442\u0440\u043e\u043c \u0434\u0435\u0442\u0441\u043a\u0438\u0439, \u0432\u0435\u0447\u0435\u0440\u043e\u043c \u0432\u0437\u0440\u043e\u0441\u043b\u044b\u0439." \u0418\u0437 \u043a\u043e\u043d\u0442\u0435\u043a\u0441\u0442\u0430 \u0432\u043e\u043f\u0440\u043e\u0441\u0430 \u0430\u0431\u0441\u043e\u043b\u044e\u0442\u043d\u043e \u044f\u0441\u043d\u043e, \u0447\u0442\u043e 30\u201332 \u043e\u0442\u043d\u043e\u0441\u0438\u0442\u0441\u044f \u043a \u0435\u0436\u0435\u043c\u0435\u0441\u044f\u0447\u043d\u043e\u0439 \u043d\u043e\u0440\u043c\u0435, \u0430 "\u0435\u0436\u0435\u0434\u043d\u0435\u0432\u043d\u043e" \u043a \u0442\u043e\u043c\u0443, \u0447\u0442\u043e \u0438\u0433\u0440\u0430\u044e\u0442\u0441\u044f \u043e\u043d\u0438 \u043a\u0430\u0436\u0434\u044b\u0439 \u0434\u0435\u043d\u044c.\u041f\u0440\u043e\u0441\u0442\u0438\u0442\u0435, \u0447\u0442\u043e \u0442\u0430\u043a \u043f\u043e\u0434\u0440\u043e\u0431\u043d\u043e. \u041f\u043e\u043d\u0438\u043c\u0430\u044e, \u0447\u0442\u043e \u0441\u043b\u043e\u0436\u043d\u043e \u0431\u044b\u043b\u043e \u0441\u043a\u043e\u043d\u0446\u0435\u043d\u0442\u0440\u0438\u0440\u043e\u0432\u0430\u0442\u044c\u0441\u044f \u0443\u0442\u0440\u043e\u043c.))))) \u0425\u043e\u0440\u043e\u0448\u0435\u0433\u043e \u0432\u0430\u043c \u0434\u043d\u044f
p109
I1
tp110
a(V\u041f\u0440\u0438\u043d\u0438\u043c\u0430\u044e\u0449\u0430\u044f \u0441\u0442\u0440\u0430\u043d\u0430 \u0438 \u043d\u0430 7 \u043c\u0435\u0441\u0442\u0435. \u0421\u0442\u044b\u0434\u043e\u0431\u0438\u0449\u0435 \u0438 \u043f\u043e\u0437\u043e\u0440\u0438\u0449\u0435!!!
p111
I-1
tp112
a(V\u043d\u044e\u0445\u0430\u0442\u0435\u043b\u044e \u043f\u043e\u0440\u0442\u044f\u043d\u043e\u043a\u2026 \u0421\u0438\u0434\u0438 \u043d\u0430 \u0434\u0438\u0432\u0430\u043d\u0435, \u043d\u0435 \u0441\u043a\u0443\u0447\u0430\u0439, \u0441\u043a\u043e\u0440\u043e \u0441\u0430\u043d\u0438\u0442\u0430\u0440\u044b \u0443\u043a\u043e\u043b \u0441\u0434\u0435\u043b\u0430\u044e\u0442-\u043f\u043e\u043b\u0435\u0433\u0447\u0430\u0435\u0442\u2026
p113
I-1
tp114
a(V\u041c\u041d\u0415 \u041f\u041e\u041d\u0420\u0410\u0412\u0418\u041b\u041e\u0421\u042c. \u0441\u041f\u041e\u041a\u041e\u0419\u041d\u041e. \u0413\u0420\u0410\u041c\u041e\u0422\u041d\u041e. \u0411\u0415\u0417 \u0418\u0421\u0422\u0415\u0420\u0418\u041a\u0418. \u0413\u041e\u0421\u0422\u042c \u0412 \u0421\u0422\u0423\u0414\u0418\u0418 \u0412\u042b\u0417\u042b\u0412\u0410\u0415\u0422 \u0421\u0418\u041c\u041f\u0410\u0422\u0418\u042e.
p115
I1
tp116
a(V\u0412\u0435\u0440\u043d\u0438\u0442\u0435 \u0442\u0440\u043e\u043b\u043b\u0435\u0439\u0431\u0443\u0441 \u211614!!!!
p117
I0
tp118
a(V\u0427\u0442\u043e\u0431\u044b \u0441\u0442\u0430\u0442\u044c \u0442\u0430\u043a\u0438\u043c \u0438\u0433\u0440\u043e\u043a\u043e\u043c \u043a\u0430\u043a \u041a\u0443\u043b\u044f\u0448 \u0438 \u043f\u043e\u043b\u0443\u0447\u0430\u0442\u044c \u0442\u0430\u043a\u0438\u0435 \u0434\u0435\u043d\u044c\u0433\u0438 \u043a\u0430\u043a \u043e\u043d \u043f\u043e\u043b\u0443\u0447\u0430\u0435\u0442, \u043d\u0443\u0436\u043d\u043e \u044d\u0442\u0438\u043c \u0437\u0430\u043d\u0438\u043c\u0430\u0442\u044c\u0441\u044f \u0441 \u043c\u0430\u043b\u044b\u0445 \u043b\u0435\u0442, \u043e\u0433\u0440\u0430\u043d\u0438\u0447\u0438\u0432\u0430\u0442\u044c \u0441\u0435\u0431\u044f \u0432\u043e \u0432\u0441\u0435\u043c, \u0438\u0437 \u043f\u043e\u0434 \u0448\u0442\u0430\u043d\u0433\u0438 \u043d\u0435 \u0432\u044b\u043b\u0430\u0437\u0438\u0442\u044c, \u0431\u0435\u0433, \u043a\u0440\u043e\u0441\u0441, \u0442\u0440\u0435\u043d\u0438\u0440\u043e\u0432\u043a\u0438 3 \u0440\u0430\u0437\u0430 \u0432 \u0434\u0435\u043d\u044c .\u0428\u043b\u0438 \u0431\u044b \u0437\u0430\u043d\u0438\u043c\u0430\u043b\u0438\u0441\u044c, \u0430 \u043d\u0435 \u0441\u043a\u0443\u043b\u0438\u043b\u0438 \u0442\u0443\u0442 .
p119
I-1
tp120
a(V\u0420\u0430\u0440\u0430, \u043e\u0431\u044b\u043a\u043d\u043e\u0432\u0435\u043d\u043d\u0430\u044f \u043d\u0435\u0440\u043e\u0436\u0430\u0432\u0448\u0430\u044f \u0434\u0435\u0432\u0447\u043e\u043d\u043a\u0430 \u043b\u0435\u0442 20 \u043e\u0442 \u0441\u0438\u043b\u044b \u0441 \u0433\u0440\u0443\u0434\u044c\u044e \u043d\u0435 \u0431\u043e\u043b\u044c\u0448\u0435 \u0434\u0432\u043e\u0435\u0447\u043a\u0438. 2/3 \u0435\u0451 \u0441\u0432\u0435\u0440\u0441\u0442\u043d\u0438\u0446 \u0442\u0430\u043a\u0438\u0435 \u0436\u0435. \u041d\u043e\u0433\u0438 \u0442\u043e\u0449\u0438\u0435 \u0438 \u043a\u0440\u0438\u0432\u043e\u0432\u0430\u0442\u044b\u0435, \u0442\u0430\u043b\u0438\u0438 \u043d\u0435\u0442, \u0431\u0451\u0434\u0435\u0440 \u043d\u0435\u0442. \u042f \u0431\u044b \u043d\u0430\u0437\u0432\u0430\u043b \u0442\u0430\u043a\u0443\u044e "\u043f\u0430\u0446\u0430\u043d\u043a\u043e\u0439".
p121
I0
tp122
a(V\u0410\u043b\u0435\u043a\u0441\u0430\u043d\u0434\u044021.07.2014 23: 46: 43 \u2014 \u043f\u043e \u0433\u043b\u0443\u043f\u043e\u0441\u0442\u0438 \u0438 \u0441 \u0446\u0435\u043b\u044c\u044e \u0437\u0430\u0433\u043d\u0430\u0442\u044c \u041f\u0443\u0442\u0438\u043d\u0430 \u0432 \u0431\u0435\u0437\u0432\u043e\u0437\u0432\u0440\u0430\u0442\u043d\u044b\u0439 \u0442\u0443\u043f\u0438\u043a ---------------- \u041f\u0435\u0440\u0432\u043e\u0435 \u043f\u0440\u043e\u0442\u0438\u0432\u043e\u0440\u0435\u0447\u0438\u0442 \u0432\u0442\u043e\u0440\u043e\u043c\u0443, \u0438\u0431\u043e \u0434\u0430\u0432\u043d\u043e \u0437\u0430\u0433\u043d\u0430\u043b\u0438. \u0412 \u0440\u0435\u0437\u0443\u043b\u044c\u0442\u0430\u0442\u0435 \u041a\u0440\u044b\u043c \u0432\u0435\u0440\u043d\u0443\u0442 \u0443\u0436\u0435 \u0431\u0435\u0437 \u041f\u0443\u0442\u0438\u043d\u0430.
p123
I0
tp124
a(V\u041f\u0440\u0438\u044f\u0442\u043d\u043e \u0447\u0438\u0442\u0430\u0442\u044c \u043a\u043e\u043c\u0435\u043d\u0442\u044b, \u043b\u044e\u0434\u0438 \u0437\u043d\u0430\u044e\u0449\u0438\u0435 \u0438 \u043f\u043e\u043d\u0438\u043c\u0430\u044e\u0449\u0438\u0435) \u0421\u0442\u0430\u0442\u044c\u044f \u0423\u0413, \u043e\u0431\u0440\u0430\u0442\u0438\u043b \u0431\u044b \u0435\u0449\u0435 \u0432\u043d\u0438\u043c\u0430\u043d\u0438\u0435 \u043d\u0430 \u044d\u0442\u043e: "\u043f\u0440\u043e\u043a\u0443\u0440\u0430\u0442\u0443\u0440\u0430 \u043e\u0431\u043d\u0430\u0440\u0443\u0436\u0438\u043b\u0430 \u0435\u0449\u0435 \u0438 \u043d\u0430\u0440\u0443\u0448\u0435\u043d\u0438\u044f \u043f\u0440\u0430\u0432\u0438\u043b \u043f\u043e\u0436\u0430\u0440\u043d\u043e\u0439 \u0431\u0435\u0437\u043e\u043f\u0430\u0441\u043d\u043e\u0441\u0442\u0438 \u0432 \u0440\u0435\u0441\u0442\u043e\u0440\u0430\u043d\u0435" \u0443 \u043f\u0440\u043e\u043a\u0443\u0440\u0430\u0442\u0443\u0440\u044b \u0442\u0430\u043a\u0436\u0435 \u043d\u0435\u0442 \u043f\u043e\u043b\u043d\u043e\u043c\u043e\u0447\u0438\u0439 \u0438\u0441\u043a\u0430\u0442\u044c \u043d\u0430\u0443\u0449\u0435\u043d\u0438\u044f \u043f\u043e\u0436\u0430\u0440\u043d\u043e\u0439 \u0431\u0435\u0437\u043e\u043f\u0430\u0441\u043d\u043e\u0441\u0442\u0438.
p125
I1
tp126
a(V\u041c\u0430\u043b\u043e \u0434\u0430\u043b\u0438.\u0421\u0442\u043e\u043b\u044c\u043a\u043e \u0436\u0438\u0437\u043d\u0435\u0439 \u043f\u0435\u0440\u0435\u043b\u043e\u043c\u0430\u043d\u043e.\u0414\u0430 \u0437\u0430 \u043e\u0434\u043d\u0443 \u0442\u0443 \u0436\u0438\u0437\u043d\u044c(34-\u043b\u0435\u0442\u043d\u0435\u0439 \u0436\u0435\u043d\u0449\u0438\u043d\u044b, \u0443 \u043a\u043e\u0442\u043e\u0440\u043e\u0439 \u043d\u043e\u0433\u0438 \u0440\u0430\u0437\u0434\u0440\u043e\u0431\u043b\u0435\u043d\u044b \u043f\u043e \u0435\u0433\u043e \u0432\u0438\u043d\u0435)- \u043b\u0435\u0442 15 \u0434\u0430\u0432\u0430\u0442\u044c.\u041f\u0440\u0435\u0441\u0442\u0443\u043f\u043d\u0430\u044f \u0445\u0430\u043b\u0430\u0442\u043d\u043e\u0441\u0442\u044c \u2014 \u0438 4 \u0433\u043e\u0434\u0438\u043a\u0430 \u043e\u0431\u0449\u0435\u0433\u043e \u0440\u0435\u0436\u0438\u043c\u0430???!!! \u0416\u0435\u043b\u0430\u044e \u0441\u0435\u043c\u044c\u044f\u043c \u0442\u0435\u043c, \u043a\u0442\u043e \u0434\u0430\u0435\u0442 \u0442\u0430\u043a \u043c\u0430\u043b\u043e \u0443\u0431\u0438\u0439\u0446\u0430\u043c -\u0441\u0435\u0441\u0442\u044c \u043d\u0430 \u0442\u0430\u043a\u043e\u0435 \u0436\u0435,, \u041f\u043e\u043b\u0435\u0441\u044c\u0435" .
p127
I-1
tp128
a(V\u0411\u0418\u0410, \u043a\u0430\u043a \u0438 \u0432\u043e \u0432\u0441\u0435\u043c, \u0430\u043c\u0435\u0440\u0438\u043a\u043e\u0441\u044b \u0434\u043e\u0441\u0442\u0438\u0433\u0430\u044e\u0442 \u0443\u0441\u043f\u0435\u0445\u0430 \u0445\u043e\u0440\u043e\u0448\u043e \u043f\u0440\u043e\u0434\u0443\u043c\u0430\u043d\u043d\u043e\u0439 \u043d\u0430\u0443\u0447\u043d\u043e\u0439 \u043e\u0440\u0433\u0430\u043d\u0438\u0437\u0430\u0446\u0438\u0435\u0439 \u0441\u0438\u0441\u0442\u0435\u043c\u044b. \u0422\u0432\u043e\u0440\u0447\u0435\u0441\u043a\u0438\u0439 \u043f\u043e\u0434\u0445\u043e\u0434 \u0432 \u0440\u0430\u043c\u043a\u0430\u0445 \u044d\u0442\u043e\u0439 \u0441\u0438\u0441\u0442\u0435\u043c\u044b \u043d\u0435 \u0432\u0430\u0436\u0435\u043d, \u043b\u0438\u0447\u043d\u043e\u0441\u0442\u043d\u044b\u0439 \u0444\u0430\u043a\u0442\u043e\u0440 \u0441\u0432\u0435\u0434\u0435\u043d \u043a \u043c\u0438\u043d\u0438\u043c\u0443\u043c\u0443. \u041d\u043e \u0435\u0441\u043b\u0438 \u0438\u0437 \u0445\u043e\u0440\u043e\u0448\u043e \u043f\u0440\u043e\u0434\u0443\u043c\u0430\u043d\u043d\u043e\u0439 \u0441\u0438\u0441\u0442\u0435\u043c\u044b \u043d\u0430\u0447\u0430\u0442\u044c \u0432\u044b\u0431\u0438\u0432\u0430\u0442\u044c \u0432\u0430\u0436\u043d\u044b\u0435 \u044d\u043b\u0435\u043c\u0435\u043d\u0442\u044b, \u0442\u043e \u0440\u0430\u0431\u043e\u0442\u0430\u0442\u044c \u043e\u043d\u0430 \u0443\u0436\u0435 \u043d\u0435 \u0431\u0443\u0434\u0435\u0442. \u041e\u0434\u0438\u043d \u0438\u0437 \u0432\u0430\u0436\u043d\u044b\u0445 \u044d\u043b\u0435\u043c\u0435\u043d\u0442\u043e\u0432, \u0432\u044b\u0431\u0438\u0442\u044b\u0445 \u0438\u0437 \u0430\u043c\u0435\u0440\u043e\u0432\u0441\u043a\u043e\u0439 \u0441\u0438\u0441\u0442\u0435\u043c\u044b \u0441\u043f\u0435\u0446 \u0441\u043b\u0443\u0436\u0431 \u0437\u0430 \u043f\u043e\u0441\u043b\u0435\u0434\u043d\u0438\u0435 20 \u043b\u0435\u0442, \u2014 \u044d\u0442\u043e \u0438\u0445 \u043f\u043e\u0437\u0438\u0442\u0438\u0432\u043d\u044b\u0439 \u043e\u0431\u0440\u0430\u0437, \u0434\u043e\u0432\u0435\u0440\u0438\u0435 \u043a \u043d\u0438\u043c \u043a\u0430\u043a \u043a \u0433\u0443\u043c\u0430\u043d\u043d\u044b\u043c \u043f\u0440\u043e\u0444\u0435\u0441\u0441\u0438\u043e\u043d\u0430\u043b\u0430\u043c \u043d\u0430 \u0441\u0442\u0440\u0430\u0436\u0435 \u0441\u043f\u0440\u0430\u0432\u0435\u0434\u043b\u0438\u0432\u043e\u0441\u0442\u0438 \u0438 \u043c\u0438\u0440\u0430. \u0422\u0430\u043a \u044f \u044d\u0442\u043e \u0432\u0438\u0436\u0443. \u041e\u043d\u0438 \u0441\u0442\u0430\u043b\u0438 \u043d\u0430\u0441\u0442\u043e\u044f\u0449\u0438\u043c \u0433\u043b\u043e\u0431\u0430\u043b\u044c\u043d\u044b\u043c \u043f\u0443\u0433\u0430\u043b\u043e\u043c \u0438 \u043f\u043e \u0434\u0435\u043b\u043e\u043c. \u041e\u0442 \u0442\u0430\u043a\u043e\u0439 \u0440\u0435\u043f\u0443\u0442\u0430\u0446\u0438\u0438 \u0438\u043c \u0443\u0436\u0435 \u043d\u0435 \u0438\u0437\u0431\u0430\u0432\u0438\u0442\u044c\u0441\u044f, \u0442\u0435\u043c \u0431\u043e\u043b\u0435\u0435 \u0447\u0442\u043e \u043e\u043d\u0438 \u0438 \u043d\u0435 \u043f\u044b\u0442\u0430\u044e\u0442\u0441\u044f.
p129
I-1
tp130
a(V\u041d\u0438\u0447\u0435 \u0447\u0435\u0440\u0435\u0437 \u043c\u0435\u0441\u044f\u0446 - \u043d\u0430 \u0430\u0432\u0442\u043e\u0440\u044b\u043d\u043a\u0435 \u0431\u0443\u0434\u0435\u0442 \u043a\u0430\u043a \u0431\u0435\u0441\u043f\u0440\u043e\u0431\u0435\u0436\u043d\u0430\u044f \u043f\u0440\u043e\u0434\u0430\u0432\u0430\u0442\u044c\u0441\u044f...\u0432 \u0441\u0430\u043b\u043e\u043d\u0435 \u043d\u0435 \u043c\u0430\u0442\u0435\u0440\u0438\u043b\u0438\u0441\u044c, \u0434\u0435\u0434\u0443\u0448\u043a\u0430 \u044f\u043f\u043e\u043d\u0441\u043a\u0438\u0439 \u0437\u0430 \u043f\u0435\u043d\u0441\u0438\u0435\u0439 \u043d\u0430 \u043d\u0435\u0439 \u0435\u0437\u0434\u0438\u043b!\u000a\u0410 \u043f\u043e \u043f\u043e\u0432\u043e\u0434\u0443 \u0431\u0435\u0437\u043e\u043f\u0430\u0441\u043d\u043e\u0441\u0442\u0438 - \u043d\u0430 \u0416\u0438\u0433\u0443\u0430\u0440\u0435 \u0432\u0441\u043b\u0443\u0447\u0430\u0435 \u0447\u0435\u0433\u043e \u0432\u043e\u043e\u0431\u0449\u0435 \u0431\u044b \u0432\u0441\u0435 \u0443\u0431\u0438\u043b\u0438\u0441\u044c.
p131
I0
tp132
a(V\u0445\u043e\u0442\u044c \u043a\u043e\u043c\u043c\u0443\u043d\u0438\u0441\u0442\u044b \u043d\u0435 \u043f\u043e\u0434\u0432\u0435\u043b\u0438
p133
I1
tp134
a(V\u041c\u043d\u0435 \u0432\u043e\u0442 \u0438\u043d\u0442\u0435\u0440\u0435\u0441\u043d\u043e, \u043a\u0430\u043a\u0443\u044e \u0446\u0435\u043b\u044c \u043f\u0440\u0435\u0441\u043b\u0435\u0434\u0443\u0435\u0442 "\u043c\u0430\u043c\u043e\u0447\u043a\u0430", \u0438\u0441\u043f\u043e\u043b\u044c\u0437\u0443\u044f \u0441\u0432\u043e\u0438 \u0432\u043e\u0437\u043c\u043e\u0436\u043d\u043e\u0441\u0442\u0438 \u0432 \u0421\u041c\u0418? \u0415\u0451 \u0440\u0435\u0431\u0451\u043d\u043e\u043a \u043f\u0435\u0440\u0435\u0436\u0438\u0432\u0430\u0435\u0442, \u0447\u0442\u043e \u043e\u0434\u043d\u043e\u043a\u043b\u0430\u0441\u0441\u043d\u0438\u043a\u0438 \u0443\u0437\u043d\u0430\u044e\u0442 \u0432\u0441\u044e \u044d\u0442\u0443 \u0441\u043f\u043e\u0440\u043d\u0443\u044e \u0438\u0441\u0442\u043e\u0440\u0438\u044e (\u043a\u0442\u043e-\u0442\u043e \u0432\u0435\u0440\u0438\u0442, \u0447\u0442\u043e \u0443\u0447\u0438\u0442\u0435\u043b\u044c\u043d\u0438\u0446\u0430 \u043f\u043e\u0439\u0434\u0435\u0442 \u043f\u043e \u043e\u0434\u043d\u043e\u043a\u043b\u0430\u0441\u0441\u043d\u0438\u043a\u0430\u043c \u0440\u0430\u0441\u0441\u043a\u0430\u0437\u044b\u0432\u0430\u0442\u044c?)) \u0410 \u043c\u0443\u0434\u0440\u0430\u044f \u0437\u0430\u0431\u043e\u0442\u043b\u0438\u0432\u0430\u044f "\u043c\u0430\u043c\u043e\u0447\u043a\u0430" \u0432\u043c\u0435\u0441\u0442\u043e \u0442\u043e\u0433\u043e, \u0447\u0442\u043e\u0431\u044b \u043d\u0430\u0439\u0442\u0438 \u043e\u0431\u0449\u0438\u0439 \u044f\u0437\u044b\u043a \u0441 \u0432\u043f\u043e\u043b\u043d\u0435 \u0432\u043c\u0435\u043d\u044f\u0435\u043c\u044b\u043c \u043f\u0440\u0435\u043f\u043e\u0434\u0430\u0432\u0430\u0442\u0435\u043b\u0435\u043c, \u0440\u0430\u0441\u0442\u0440\u044f\u0441\u043b\u0430 \u0433\u0440\u044f\u0437\u043d\u043e\u0435 \u0431\u0435\u043b\u044c\u0451 \u043d\u0430 \u0432\u0435\u0441\u044c \u0433\u043e\u0440\u043e\u0434 \u0438 \u0434\u043e \u043f\u0440\u0435\u0437\u0438\u0434\u0435\u043d\u0442\u0430. \u0422\u0435\u043f\u0435\u0440\u044c \u043f\u0440\u043e \u0434\u0435\u0432\u043e\u0447\u043a\u0443 \u043e\u0434\u043d\u043e\u043a\u043b\u0430\u0441\u0441\u043d\u0438\u043a\u0438 \u0443\u0437\u043d\u0430\u044e\u0442 \u0441\u0442\u043e\u043b\u044c\u043a\u043e, \u0447\u0442\u043e \u043d\u0438\u043a\u0430\u043a\u0430\u044f \u043f\u043b\u043e\u0445\u0430\u044f \u0443\u0447\u0438\u0442\u0435\u043b\u044c\u043d\u0438\u0446\u0430 \u043d\u0435 \u0440\u0430\u0441\u0441\u043a\u0430\u0436\u0435\u0442. \u0414\u043e\u0431\u0440\u044b\u043c\u0438 \u043d\u0430\u043c\u0435\u0440\u0435\u043d\u0438\u044f\u043c\u0438 "\u043c\u0430\u043c\u043e\u0447\u043a\u0438" \u0432\u044b\u043c\u043e\u0449\u0435\u043d\u0430 \u0434\u043e\u0440\u043e\u0433\u0430 \u0432 \u0430\u0434.
p135
S'-'
p136
tp137
a(V\u0417\u0434\u0430\u043d\u0438\u0435 \u0441\u0442\u0440\u043e\u0438\u0442\u044c\u0441\u044f \u0441 \u043d\u0443\u043b\u044f \u0438\u0437 \u043c\u0435\u0442\u0430\u043b\u043b\u043e\u043a\u043e\u043d\u0441\u0442\u0440\u0443\u043a\u0446\u0438\u0439.
p138
I0
tp139
a(V\u043d\u0443 \u0442\u0430\u043a \u043e\u043d \u0431\u044b\u043b \u0441\u043e\u0430\u0432\u0442\u043e\u0440\u043e\u043c \u0442\u0435\u0445 \u0434\u0438\u0441\u0435\u0440\u043e\u0432, \u0447\u0435\u0433\u043e \u043a \u0447\u0435\u043b\u043e\u0432\u0435\u043a\u0443 \u043f\u0440\u0438\u043b\u0438\u043f\u043b\u0438- \u0432\u0441\u0451 \u043d\u043e\u0440\u043c\u0430\u043b\u044c\u043d\u043e \u0441\u0438\u0431\u0430\u0434\u0438 \u0432\u043e\u0440\u0435\u0432\u0430
p140
I1
tp141
a(V\u0414\u0443\u043c\u0430\u044e \u0441 \u044d\u0442\u0438\u043c \u0441\u043e\u0441\u0442\u0430\u0432\u043e\u043c \u0410\u0432\u0430\u043d\u0433\u0430\u0440\u0434\u0443 \u043f\u043e \u0441\u0438\u043b\u0430\u043c \u0432\u044b\u0439\u0442\u0438 \u0432 \u041f\u041e.
p142
I1
tp143
a(V\u0415\u0441\u0442\u0435\u0441\u0442\u0432\u0435\u043d\u043d\u043e \u0431\u0435\u0441\u043f\u043b\u0430\u0442\u043d\u043e \u043d\u0438\u043a\u0442\u043e \u0438 \u043d\u0435 \u0437\u0430\u0445\u043e\u0447\u0435\u0442 \u043f\u0438\u0441\u0430\u0442\u044c \u0441\u043e\u0447\u0438\u043d\u0435\u043d\u0438\u044f...
p144
I0
tp145
a(V\u2026\u0412 \u043c\u043e\u043c\u0435\u043d\u0442 \u0414\u0422\u041f \u043e\u043d\u0430 \u043d\u0435\u0441\u043b\u0430 \u0441\u043b\u0443\u0436\u0431\u0443 \u0432 \u043f\u043e\u0433\u0440\u0430\u043d\u0438\u0447\u043d\u043e\u0439 \u0431\u0443\u0434\u043a\u0435.. \u0411\u043e\u0436\u0435 \u043c\u043e\u0439, \u043d\u0443 \u043a\u0430\u043a\u0430\u044f \u043f\u043e\u0433\u0440\u0430\u043d\u0438\u0447\u043d\u0430\u044f \u0431\u0443\u0434\u043a\u0430??? ..\u0423\u0432\u0430\u0436\u0430\u0435\u043c\u044b\u0435 \u0440\u0435\u0434\u0430\u043a\u0442\u043e\u0440\u044b, \u043d\u0443 \u043d\u0430\u0437\u044b\u0432\u0430\u0439\u0442\u0435 \u0432\u0435\u0449\u0438 \u0441\u0432\u043e\u0438\u043c\u0438 \u0438\u043c\u0435\u043d\u0430\u043c\u0438, \u2026\u0445\u043e\u0442\u044f \u0431\u044b \u043d\u0430\u043f\u0438\u0448\u0438\u0442\u0435 \u0432 \u043f\u0443\u043d\u043a\u0442\u0435 \u043f\u0440\u043e\u043f\u0443\u0441\u043a\u0430 (\u0427\u0428), \u2026\u0447\u0442\u043e \u0437\u0430 \u0431\u0443\u0434\u043a\u0430\u2026, \u043d\u0443 \u043f\u0440\u044f\u043c \u0441\u043b\u0443\u0445 \u0440\u0435\u0436\u0435\u0442\u2026
p146
I0
tp147
a(V>>\u041f\u0440\u043e\u0441\u0442\u043e \u043e\u043d\u0438 \u0441\u0443\u0434\u0438\u0442\u044c \u043d\u0435 \u0443\u043c\u0435\u044e\u0442, \u0432\u043e\u0442 \u0438 \u0432\u0441\u0435 \u0442\u043e \u0435\u0441\u0442\u044c \u0432\u0441\u0435 \u0442\u0435 \u043c\u0430\u0442\u0447\u0438, \u043a\u043e\u0442\u043e\u0440\u044b\u0435 \u043e\u043d\u0438 \u0442\u0430\u043a \u043f\u0440\u043e\u0434\u0443\u043b\u0438 \u044d\u0442\u043e \u0442\u043e\u0436\u0435 \u0432\u0438\u043d\u0430 \u0441\u0443\u0434\u0435\u0439? \u043c\u043e\u0436\u0435\u0442 \u043a\u0442\u043e-\u0442\u043e \u043f\u0440\u043e\u0441\u0442\u043e \u0438\u0433\u0440\u0430\u0442\u044c \u043d\u0435 \u0443\u043c\u0435\u0435\u0442?
p148
I-1
tp149
a(V\u041c\u043e\u0436\u043d\u043e \u043f\u043e\u0434\u0443\u043c\u0430\u0442\u044c,\u0442\u043e\u043b\u044c\u043a\u043e \u0428\u0438\u0448\u043e\u0432 \u0432\u0438\u043d\u043e\u0432\u0430\u0442......\u041f\u0443\u0441\u0442\u044c \u0447\u0438\u043d\u043e\u0432\u043d\u0438\u043a\u0438 \u0442\u043e\u0436\u0435 \u043e\u0442\u0432\u0435\u0447\u0430\u044e\u0442 \u043f\u043e \u0437\u0430\u0441\u043b\u0443\u0433\u0430\u043c....\u0410 \u043b\u044e\u0434\u0435\u0439 \u0436\u0430\u043b\u043a\u043e....\u0421\u043a\u043e\u043b\u044c\u043a\u043e \u0441\u043f\u0435\u0446\u0438\u0430\u043b\u0438\u0441\u0442\u043e\u0432 \u043e\u0441\u0442\u0430\u043b\u043e\u0441\u044c \u0431\u0435\u0437 \u0440\u0430\u0431\u043e\u0442\u044b....
p150
I-1
tp151
a(V\u041a\u0430\u0437\u0430\u0448\u043a\u0438 \u0432 \u0421\u0430\u0431\u0432\u0435\u0435 \u043d\u0435 \u0441\u0438\u0434\u044f\u0442!\u0422\u0430\u043c \u0434\u0440\u0443\u0433\u043e\u0439 \u043a\u043e\u043d\u0442\u0438\u043d\u0433\u0435\u043d\u0442.
p152
I0
tp153
a(V\u041d\u0430\u0434\u043e \u0442\u0430\u043a\u0436\u0435 \u043f\u0440\u043e\u0432\u0435\u0440\u0438\u0442\u044c \u0410\u0432\u0430\u043d\u0433\u0430\u0440\u0434. \u0423\u0432\u0435\u0440\u0435\u043d, \u0447\u0442\u043e \u043f\u0435\u0440\u0435\u0434 \u0438\u0433\u0440\u043e\u0439 \u0441 \u0412\u0438\u0442\u044f\u0437\u0435\u043c \u043e\u043d\u0438 \u0442\u043e\u0436\u0435 \u043f\u0440\u0438\u043d\u044f\u043b\u0438 \u0434\u043e\u043f\u0438\u043d\u0433..
p154
I-1
tp155
a(V\u0412\u043f\u043e\u043b\u043d\u0435 \u0441\u0435\u0431\u0435 \u0437\u0430\u043a\u043e\u043d\u043e\u043f\u043e\u0441\u043b\u0443\u0448\u043d\u044b\u0439 \u0433\u0440\u0430\u0436\u0434\u0430\u043d\u0438\u043d! \u041d\u0443 \u043e\u0448\u0438\u0431\u0441\u044f \u043f\u0430\u0440\u0443 \u0440\u0430\u0437, \u0441 \u043a\u0435\u043c \u043d\u0438 \u0431\u044b\u0432\u0430\u0435\u0442... \u041d\u0443\u0436\u043d\u043e \u043f\u043e\u043d\u044f\u0442\u044c \u0438 \u043f\u0440\u043e\u0441\u0442\u0438\u0442\u044c!
p156
I1
tp157
a(V\u041a\u043e\u0440\u0435\u043d\u043d\u043e\u0439, \u0434\u043b\u044f \u0442\u043e\u0433\u043e, \u0447\u0442\u043e\u0431\u044b \u0432\u0435\u0440\u043d\u0443\u0442\u044c \u043a\u0430\u043a \u0432 \u0421\u0421\u0421\u0420, \u043d\u0443\u0436\u043d\u043e \u0441\u043d\u0430\u0447\u0430\u043b\u0430 \u0432\u0435\u0440\u043d\u0443\u0442\u044c \u0443\u0447\u0438\u0442\u0435\u043b\u0435\u0439, \u043a\u0430\u043a\u0438\u0435 \u0431\u044b\u043b\u0438 \u0432 \u0421\u0421\u0421\u0420. \u0410 \u043f\u043e\u043a\u0430 \u0442\u0433\u043b\u044c\u043a\u043e \u0415\u0413\u042d.
p158
I0
tp159
a(V\u0410 \u043c\u0438\u043b\u0438\u0446\u0438\u044f \u0442\u043e\u0433\u0434\u0430 \u043d\u0430 \u0447\u0442\u043e? \u0414\u0443\u043c\u0430\u044e \u043c\u043e\u0436\u0435\u0442 \u043c\u044d\u0440\u0443 \u0438\u043b\u0438 \u0433\u0443\u0431\u0435\u0440\u043d\u0430\u0442\u043e\u0440\u0443 \u043f\u043e\u0436\u0430\u043b\u043e\u0432\u0430\u0442\u044c\u0441\u044f. \u0414\u043e\u0447\u044c \u0433\u043e\u0432\u043e\u0440\u0438\u043b\u0430 \u0447\u0442\u043e \u0443 \u043d\u0438\u0445 \u043a\u0430\u043a\u0430\u044f-\u0442\u043e \u043f\u0440\u044f\u043c\u0430\u044f \u043b\u0438\u043d\u0438\u044f \u0435\u0441\u0442\u044c \u0434\u043b\u044f \u0436\u0430\u043b\u043e\u0431\u0449\u0438\u043a\u043e\u0432. \u0423\u0437\u043d\u0430\u0442\u044c \u0431\u044b \u0442\u043e\u043b\u044c\u043a\u043e \u0433\u0434\u0435 \u043e\u043d\u0430.
p160
I0
tp161
a(V\u0414\u0432\u0430 \u0434\u0432\u0438\u0436\u043a\u0430 \u043f\u043e \u0434\u043e\u0440\u043e\u0433\u0435 \u043e\u0442\u0432\u0430\u043b\u0438\u043b\u0438\u0441\u044c . \u0432\u043e\u0442 \u0438 \u043f\u043e\u0448\u0451\u043b \u043d\u0430 \u0432\u044b\u043d\u0443\u0436\u0434\u0435\u043d\u043d\u0443\u044e!\u000a
p162
I0
tp163
a(V\u0417\u043d\u0430\u0435\u0442\u0435, \u043d\u0438\u043a\u043e\u0433\u0434\u0430 \u043d\u0435 \u043e\u0434\u043e\u0431\u0440\u044f\u043b \u0434\u0435\u0439\u0441\u0442\u0432\u0438\u044f \u0421\u0442\u0430\u043b\u0438\u043d, \u041f\u043e\u043b\u0430 \u041f\u043e\u0442\u0430 \u0438 \u043f\u0440\u043e\u0447\u0438\u0445 \u043b\u044e\u0434\u043e\u0435\u0434\u043e\u0432, \u043d\u043e \u0432\u0438\u0434\u0438\u043c\u043e \u0440\u0435\u0430\u043b\u044c\u043d\u043e \u0441 \u043d\u0430\u0448\u0435\u0439 \u043e\u0440\u0434\u043e\u0439 \u043f\u043e \u0434\u0440\u0443\u0433\u043e\u043c\u0443 \u043d\u0438\u043a\u0430\u043a. \u000a\u0410\u0431\u0441\u043e\u043b\u044e\u0442\u043d\u043e \u0433\u043b\u0443\u043f\u043e\u0435, \u0431\u0435\u0441\u0442\u043e\u043b\u043a\u043e\u0432\u043e\u0435 \u0438 \u043f\u0440\u043e\u0437\u043e\u043c\u0431\u0438\u0440\u043e\u0432\u0430\u043d\u043d\u044b \u043d\u0430\u0441\u0435\u043b\u0435\u043d\u0438\u0435. \u041e\u043d\u0438 \u0440\u0435\u0430\u043b\u044c\u043d\u043e \u0432\u0435\u0440\u044f\u0442, \u0447\u0442\u043e \u043e\u0442 \u0441\u0430\u043d\u043a\u0446\u0438\u0438 \u0431\u043e\u043b\u044c\u0448\u0435 \u043f\u043e\u0441\u0442\u0440\u0430\u0434\u0430\u0435\u0442 \u0413\u0435\u0440\u043c\u0430\u043d\u0438\u044f. \u0423 \u043a\u043e\u0442\u043e\u0440\u044b\u0445 \u0441 \u041f\u043e\u043b\u044c\u0448\u0435\u0439 \u0442\u043e\u0440\u0433\u043e\u0432\u043b\u044f \u043b\u0443\u0447\u0448\u0435 \u0447\u0435\u043c \u0420\u043e\u0441\u0441\u0438\u044f, \u0447\u0435\u043c \u0441\u0430\u043c\u0430 \u0420\u043e\u0441\u0441\u0438\u044f \u000a\u041e\u043d\u0438 \u0432\u0435\u0440\u044f\u0442, \u0447\u0442\u043e \u0435\u0441\u043b\u0438 \u0440\u0430\u043d\u044c\u0448\u0435 \u043e\u043d\u0438 \u043f\u043b\u0430\u043a\u0430\u043b\u0438\u0441\u044c \u043d\u0430 \u043f\u043b\u043e\u0445\u0438\u0435 \u0434\u043e\u0440\u043e\u0433\u0438, \u043d\u0430 \u0434\u043e\u0440\u043e\u0433\u0438\u0435 \u0446\u0435\u043d\u044b, \u043d\u0430 \u043d\u0435\u0434\u043e\u0441\u0442\u0443\u043f\u043d\u044b\u0435 \u043b\u0435\u043a\u0430\u0440\u0441\u0442\u0432\u0430 \u0434\u043b\u044f \u0442\u044f\u0436\u0435\u043b\u043e \u0431\u043e\u043b\u044c\u043d\u044b\u0445, \u0442\u043e \u0441 \u0441\u0430\u043d\u043a\u0446\u0438\u044f\u043c\u0438 \u0432\u0441\u0435 \u044d\u0442\u043e \u0438\u0441\u0447\u0435\u0437\u043d\u0435\u0442. \u000a\u041a\u0430\u043a \u0438\u0445 \u043d\u0430\u0437\u0432\u0430\u0442\u044c? 
p164
I-1
tp165
a(V\u0411\u043e\u0440\u0438\u0441 \u043e\u043c\u0438\u0447
p166
I0
tp167
a(V\u0410 \u043a\u0430\u043a \u0436\u0435 \u041f\u0430\u0432\u0435\u043b \u0428\u0430\u0440\u0443\u0438\u043c\u043e\u0432 \u2014 \u0447\u0435\u043b\u043e\u0432\u0435\u043a \u043b\u0435\u0433\u0435\u043d\u0434\u0430, \u0432\u0435\u0434\u044c \u043e\u043d \u0434\u0430\u043b \u043d\u0430\u0447\u0430\u043b\u043e \u0431\u043e\u043b\u044c\u0448\u043e\u043c\u0443 \u0445\u043e\u043a\u043a\u0435\u044e \u0432 \u041e\u043c\u0441\u043a\u0435 \u0411\u0435\u0437 \u0428\u0435\u0440\u0443\u0438\u043c\u043e\u0432\u0430 \u043d\u0435 \u0432\u0438\u0436\u0443 \u0441\u043c\u044b\u0441\u043b\u0430 \u0432 \u0445\u043e\u043a\u043a\u0435\u0435
p168
I0
tp169
a(V\u0414\u0430 \u043c\u044b \u0438\u0445 \u0431\u0443\u0434\u0435\u043c \u043a\u0430\u0436\u0434\u044b\u0439 \u0440\u0430\u0437 \u0443\u0431\u0438\u0440\u0430\u0442\u044c \u0438 \u043f\u043e\u043a\u0430\u0437\u044b\u0432\u0430\u0442\u044c \u043f\u043e 12 \u043a\u0430\u043d\u0430\u043b\u0443. \u041a\u0430\u043a\u0430\u044f \u0431\u0443\u0440\u043e\u0441\u0442\u044c \u2014 \u043f\u043e\u043a\u0430\u0437\u044b\u0432\u0430\u0435\u043c \u0432 \u043d\u0430\u0448\u0435\u0439 \u043f\u0435\u0440\u0435\u0434\u0430\u0447\u0435, \u0430 \u043e\u043d\u0438 \u0441\u043d\u043e\u0432\u0430 \u0441\u0442\u0430\u0432\u044f\u0442 \u2014 \u0442\u0438\u043f\u0430 \u0443\u0436\u0435 \u0434\u0440\u0443\u0433\u043e\u0433\u043e \u0445\u043e\u0437\u044f\u0438\u043d\u0430. \u0422\u0430\u043a\u043e\u0433\u043e \u0441\u0435\u0431\u0435 \u043d\u0438 \u0423\u041a, \u043d\u0438 \u043a\u043e\u043c\u043c\u0443\u043d\u0430\u043b\u044c\u0449\u0438\u043a\u0438 \u043d\u0435 \u043f\u043e\u0437\u0432\u043e\u043b\u044f\u043b\u0438 \u043d\u0438\u043a\u043e\u0433\u0434\u0430.
p170
I-1
tp171
a(V\u041a\u0440\u044b\u0441\u044b \u043e\u043a\u0430\u0437\u0430\u043b\u0438\u0441\u044c \u0431\u0440\u0430\u043a\u043e\u0432\u0430\u043d\u044b((((\u000a
p172
I-1
tp173
a(V\u0412\u0441\u0435\u043c \u0435\u0449\u0435 \u0437\u0430\u0432\u0438\u0441\u0438\u0442 \u043e\u0442 \u0441\u0442\u0440\u0443\u043a\u0442\u0443\u0440\u044b \u0447\u0435\u043b\u043e\u0432\u0435\u043a\u0430. \u041d\u0435\u043a\u043e\u0442\u043e\u0440\u044b\u0435 \u0435\u0434\u044f\u0442, \u0438 \u0445\u043e\u0442\u044c \u0431\u044b  \u0447\u0442\u043e, \u0430 \u043d\u0435\u043a\u043e\u0442\u043e\u0440\u044b\u0435 \u043f\u043e\u043f\u0440\u0430\u0432\u043b\u044f\u044e\u0442\u0441\u044f \u043d\u0430 \u043f\u0443\u0441\u0442\u043e\u043c \u043c\u0435\u0441\u0442\u0435 \u0431\u0443\u043a\u0432\u0430\u043b\u044c\u043d\u043e. \u041d\u043e \u0432 \u043e\u0434\u043d\u043e\u043c \u0441\u043e\u0433\u043b\u0430\u0441\u0435\u043d, \u0443\u043c\u0435\u0440\u0435\u043d\u043d\u043e\u0441\u0442\u044c \u0432 \u0435\u0434\u0435 \u0434\u043e\u043b\u0436\u043d\u0430 \u0431\u044b\u0442\u044c
p174
I0
tp175
a(V\u0430 \u0435\u0441\u043b\u0438 \u0441\u043e\u0431\u0430\u043a\u0430 \u0432 \u0441\u0430\u0440\u0430\u0435 \u043d\u0430 \u043d\u0435\u0433\u043e \u043d\u0430\u043f\u0430\u043b\u0430, \u0442\u043e \u0436\u0435 \u043d\u0435\u043b\u044c\u0437\u044f \u0441\u0442\u0440\u0435\u043b\u044f\u0442\u044c, \u043d\u0430\u0434\u043e \u0432 \u043b\u0435\u0441\u043e\u043a \u043f\u043e\u0431\u0435\u0436\u0430\u0442\u044c \u0438 \u0442\u0430\u043c \u043f\u0440\u0438\u0441\u0442\u0440\u0435\u043b\u0438\u0442\u044c? \u0418\u0414\u0418\u041e\u0422\u0418\u0417\u041c.
p176
I-1
tp177
a(V\u0410 \u043e\u043d \u043d\u0430\u043c \u043d\u0443\u0436\u0435\u043d?? \u0432\u0438\u0434\u0435\u043b \u044f \u0435\u0433\u043e \u043f\u0440\u0438 \u0438\u0433\u0440\u0435, \u043e\u0442\u0441\u0442\u043e\u0439, \u0438\u0433\u0440\u0430\u0442\u044c \u0432\u0430\u0449\u0435 \u043d\u0435 \u0443\u043c\u0435\u0435\u0442.....
p178
I-1
tp179
a(V\u041f\u0440\u0438\u044f\u0442\u043d\u043e \u0432\u0438\u0434\u0435\u0442\u044c \u0430\u0434\u0435\u043a\u0432\u0430\u0442\u043d\u043e\u0433\u043e \u0447\u0435\u043b\u043e\u0432\u0435\u043a\u0430, \u043a\u043e\u0442\u043e\u0440\u044b\u0439 \u043f\u043e\u043b\u0443\u0447\u0438\u0432 \u0432\u043e\u0437\u043c\u043e\u0436\u043d\u043e\u0441\u0442\u044c, \u0431\u0435\u0437 \u0440\u0430\u0437\u0434\u0443\u043c\u0438\u0439 \u043f\u043e\u043a\u0438\u0434\u0430\u0435\u0442 \u043a\u0430\u0442\u043e\u0440\u0433\u0443. \u0422\u0430\u043a\u0436\u0435 \u043f\u0440\u0438\u044f\u0442\u043d\u043e \u0432\u0438\u0434\u0435\u0442\u044c \u0433\u0440\u0430\u0431\u044f\u0449\u0438\u0445 \u0440\u0435\u0433\u0438\u043e\u043d \u0412\u042b\u041f\u043e\u0432, \u043a\u043e\u0442\u043e\u0440\u044b\u0435 \u0441\u0430\u043c\u0438 \u0442\u0440\u0430\u0432\u044f\u0442\u0441\u044f \u0438 \u0442\u0440\u0430\u0432\u044f\u0442 \u0441\u0432\u043e\u0451 \u043f\u043e\u0442\u043e\u043c\u0441\u0442\u0432\u043e \u0432 \u044d\u0442\u043e\u043c \u0433\u043e\u0440\u043e\u0434\u0435..
p180
I-1
tp181
a(V\u041d\u0438 \u043e\u0434\u043d\u043e\u0433\u043e \u043d\u043e\u0440\u043c\u0430\u043b\u044c\u043d\u043e\u0433\u043e \u043a\u043e\u043c\u043c\u0435\u043d\u0442\u0430, \u043f\u043e \u0434\u0435\u043b\u0443 (\u043a\u0440\u043e\u043c\u0435 \u043c\u043e\u0435\u0433\u043e, \u043a\u043e\u043d\u0435\u0447\u043d\u043e).
p182
I-1
tp183
a(V\u0410\u0441\u044c, \u0441\u043a\u0430\u0436\u0438\u0442\u0435 \u043a\u043e\u043d\u043a\u0440\u0435\u0442\u043d\u043e \u2014 \u043a\u0430\u043a\u0438\u0435 \u043f\u0443\u043d\u043a\u0442\u044b, \u043a\u043e\u0442\u043e\u0440\u044b\u0435 \u044f \u043d\u0430\u0448\u0435\u043b, \u043d\u0435 \u0441\u043e\u0431\u043b\u044e\u0434\u0430\u044e\u0442\u0441\u044f \u0438 \u043a\u0435\u043c \u0438\u043c\u0435\u043d\u043d\u043e \u043d\u0435 \u0441\u043e\u0431\u043b\u044e\u0434\u0430\u044e\u0442\u0441\u044f?
p184
I0
tp185
a(V\u041f\u043e\u043b\u043d\u0430\u044f \u0445\u0440\u0435\u043d\u044c! \u0420\u043e\u0441\u0441\u0438\u044e \u043f\u0440\u0435\u0434\u0441\u0442\u0430\u0432\u043b\u044f\u044e\u0442 \u043e\u0434\u043d\u0438 \u0438\u043d\u043e\u0441\u0442\u0440\u0430\u043d\u0446\u044b! \u041e\u043d\u0438 \u0443\u0436\u0435 \u043f\u0440\u043e \u0420\u043e\u0441\u0441\u0438\u044e-\u0442\u043e \u043d\u0435 \u043f\u043e\u043c\u043d\u044f\u0442! \u0422\u043e\u043b\u044c\u043a\u043e \u0431\u0430\u0431\u043a\u0438 \u043d\u0430 \u0443\u043c\u0435. \u0414\u0443\u043c\u0430\u0435\u0442\u0435 \u043e\u043d\u0438 \u0441\u0442\u0430\u043d\u0443\u0442 \u0431\u043e\u0440\u043e\u0442\u044c\u0441\u044f?
p186
I-1
tp187
a(V\u041f\u043e\u0434\u0434\u0435\u0440\u0436\u0438\u0432\u0430\u044e \u0431\u043b\u0430\u0433\u043e\u0443\u0441\u0442\u0440\u043e\u0439\u0441\u0442\u0432\u043e \u0433\u043e\u0440\u043e\u0434\u0430! \u0413\u043b\u0430\u0432\u043d\u043e\u0435 \u0447\u0442\u043e\u0431\u044b \u0436\u0438\u0442\u0435\u043b\u0438 \u043f\u0440\u0438 \u044d\u0442\u043e\u043c \u043d\u0435 \u043c\u0430\u0440\u0430\u0434\u0435\u0440\u0441\u0442\u0432\u043e\u0432\u0430\u043b\u0438, \u043c\u043e\u0436\u0435\u0442 \u0438 \u043d\u0435 \u0445\u043e\u0440\u043e\u0448\u043e \u0442\u0430\u043a \u043d\u0430 \u0441\u0432\u043e\u0438\u0445 \u0441\u043e\u0441\u0435\u0434\u0435\u0439 \u0433\u043e\u0440\u043e\u0434\u0441\u043a\u0438\u0445, \u043d\u043e \u0432\u0435\u0434\u044c \u0431\u044b\u043b\u043e \u0442\u0430\u043a\u043e\u0435 \u0438 \u043d\u0435 \u0440\u0430\u0437.. \u043a\u043e\u0433\u0434\u0430 \u043f\u043e\u0441\u0430\u0434\u044f\u0442 \u0440\u044f\u0434\u043e\u043a \u0431\u0430\u0440\u0431\u0430\u0440\u0438\u0441\u0430, \u0443\u0442\u0440\u043e\u043c \u0441\u043c\u043e\u0442\u0440\u044f\u0442 - \u0430 \u0435\u0433\u043e \u043d\u0435\u0442! \u0410 \u0442\u043e\u043f\u043e\u043b\u0438, \u043a\u0441\u0442\u0430\u0442\u0438, \u043d\u0438\u043a\u0442\u043e \u0432\u043e\u0440\u043e\u0432\u0430\u0442\u044c \u043d\u0435 \u0431\u0443\u0434\u0435\u0442, \u0442\u0430\u043a \u043f\u0443\u0441\u0442\u044c \u0445\u043e\u0442\u044c \u0442\u043e\u043f\u043e\u043b\u0438 \u043f\u043e\u0441\u0430\u0434\u044f\u0442! ;) \u0413\u043e\u0440\u043e\u0434\u0443 \u043d\u0443\u0436\u043d\u044b \u043b\u0435\u0433\u043a\u0438\u0435!
p188
I1
tp189
a(V\u0423 "\u0424\u0435\u043d\u0438\u043a\u0441 \u0410\u0432\u0442\u043e" \u0432\u0438\u0434\u0435\u043e\u043a\u0430\u043c\u0435\u0440\u044b. \u041c\u043e\u043c\u0435\u043d\u0442 \u0414\u0422\u041f \u0434\u043e\u043b\u0436\u0435\u043d \u043f\u043e\u043f\u0430\u0441\u0442\u044c \u043d\u0430 \u043e\u0434\u043d\u0443 \u0438\u0437 \u043d\u0438\u0445.
p190
I0
tp191
a(V\u0421\u043e\u0432\u0440\u0435\u043c\u0435\u043d\u043d\u044b\u0439 \u0431\u0438\u0437\u043d\u0435\u0441-\u0433\u0435\u043d\u0435\u0440\u0430\u043b.
p192
I0
tp193
a(V\u0431\u0435\u0437 \u043d\u0438\u0445 \u043c\u043e\u0436\u043d\u043e \u0432\u043e\u043e\u0431\u0449\u0435 \u0435\u0437\u0434\u0438\u0442\u044c, \u043f\u0440\u043e\u0441\u0442\u043e 1 \u043e\u0440\u0430\u043d\u0436\u0435\u0432\u0430\u044f \u0431\u0443\u043c\u0430\u0436\u043a\u0430 \u0438\u043b\u0438 5 \u0437\u0435\u043b\u0451\u043d\u044b\u0445 \u043b\u0435\u0436\u0430\u0442 \u0432\u043c\u0435\u0441\u0442\u043e \u0434\u043e\u043a\u043e\u0432 \u0432 \u043a\u043e\u0440\u043e\u0447\u043a\u0435 \u0438 \u0432\u0441\u0451, \u0443\u0436\u0435 \u043f\u043e\u043b \u0433\u043e\u0434\u0430 \u043d\u0430 \u043f\u0440\u0430\u0434\u0438\u043a\u0435 \u043f\u043e\u043b\u0451\u0442 \u043d\u043e\u0440\u043c\u0430\u043b\u044c\u043d\u044b\u0439
p194
I1
tp195
a(V\u041f\u0440\u0438 \u0447\u0435\u043c \u0442\u0443\u0442 \u0434\u0432\u043e\u0439\u043d\u044b\u0435 \u0441\u0442\u0430\u043d\u0434\u0430\u0440\u0442\u044b? \u0417\u0430\u0447\u0435\u043c \u0412\u044b \u043f\u0435\u0440\u0435\u0432\u043e\u0434\u0438\u0442\u0435 \u0442\u0435\u043c\u0443? \u0414\u0430\u0432\u0430\u0439\u0442\u0435 \u0435\u0449\u0435 \u043c\u0430\u043b\u0435\u043d\u044c\u043a\u0438\u0435 \u043f\u0435\u043d\u0441\u0438\u0438 \u043e\u0431\u0441\u0443\u0434\u0438\u043c. \u0420\u0435\u0447\u044c \u0438\u0434\u0435\u0442 \u043e \u0442\u043e\u043c, \u0447\u0442\u043e\u0431\u044b \u043e\u0431\u044f\u0437\u0430\u0442\u044c \u0432\u043b\u0430\u0434\u0435\u043b\u044c\u0446\u0435\u0432 \u0443\u0431\u0438\u0440\u0430\u0442\u044c \u0437\u0430 \u0441\u043e\u0431\u0430\u043a\u0430\u043c\u0438. \u0415\u0441\u043b\u0438 \u044f \u043d\u0430\u0441\u0442\u0443\u043f\u043b\u044e \u043d\u0430 \u0431\u0440\u043e\u0448\u0435\u043d\u043d\u0443\u044e \u043f\u0430\u0447\u043a\u0443 \u043e\u0442 \u0441\u0438\u0433\u0430\u0440\u0435\u0442-\u044d\u0442\u043e \u043e\u0434\u043d\u043e, \u0430 \u0432\u043e\u0442 \u043d\u0430\u0441\u0442\u0443\u043f\u0438\u0442\u044c \u043d\u0430 \u0441\u043e\u0431\u0430\u0447\u044c\u044e \u043c\u0438\u043d\u0443 \u0441\u043e\u0432\u0441\u0435\u043c \u0434\u0440\u0443\u0433\u043e\u0435. \u041d\u0435\u043e\u0431\u0445\u043e\u0434\u0438\u043c\u043e \u043f\u0440\u0438\u043d\u0438\u043c\u0430\u0442\u044c \u043c\u0435\u0440\u044b.
p196
I0
tp197
a(V\u0412 \u0447\u0435\u0442\u0432\u0435\u0440\u0433 \u0443 \u043c\u043e\u0438\u0445 \u0437\u043d\u0430\u043a\u043e\u043c\u044b\u0445 \u043d\u0430 \u0443\u043b\u0438\u0446\u0435 \u0434\u0432\u043e\u0440\u043d\u044f\u0433\u0430 \u0438\u0441\u043a\u0443\u0441\u0430\u043b\u0430 10-\u043b\u0435\u0442\u043d\u044e\u044e \u0434\u043e\u0447\u044c. \u0414\u0435\u0432\u043e\u0447\u043a\u0430 \u0448\u043b\u0430 \u0434\u043e\u043c\u043e\u0439 \u0441 \u0437\u0430\u043d\u044f\u0442\u0438\u0439. \u0422\u0435\u043f\u0435\u0440\u044c 40 \u0443\u043a\u043e\u043b\u043e\u0432 \u0438 3 \u043c\u0435\u0441\u044f\u0446\u0430 \u043d\u0430\u0431\u043b\u044e\u0434\u0430\u0442\u044c\u0441\u044f. \u0423\u0431\u0435\u0439\u0442\u0435 \u0441\u0435\u0431\u044f, \u043b\u044e\u0431\u0438\u0442\u0435\u043b\u0438 \u0448\u0430\u043a\u0430\u043b\u043e\u0432.
p198
I-1
tp199
a(V\u0437\u0434\u0430\u0435\u0442\u0441\u044f, \u0447\u0442\u043e \u0432\u0430\u0434\u0438\u043c \u043c\u0443\u0441\u043e\u0440\u043e\u043a...
p200
I-1
tp201
a(V\u0414\u043b\u044f \u0411\u0411: \u043f\u043e\u0441\u043b\u0435\u0434\u043d\u044f\u044f \u0438\u0434\u0435\u044f \u2014 \u0445\u043e\u0440\u043e\u0448\u0430\u044f, \u043d\u043e \u043d\u0435 \u0443\u0432\u0435\u0440\u0435\u043d, \u0447\u0442\u043e \u043e\u0441\u0443\u0449\u0435\u0441\u0442\u0432\u0438\u043c\u0430\u044f. \u041e\u043d\u0435 \u2014 \u043e\u0431\u044b\u0447\u043d\u043e \u0436\u0435 \u043f\u043e \u043f\u0440\u0438\u0435\u0437\u0434\u0443 \u043d\u0430 \u043a\u0440\u044b\u0448\u0430\u0445 \u0438\u043c\u0435\u044e\u0442 \u0441\u0432\u043e\u0439\u0441\u0442\u0432\u043e \u0434\u0440\u0443\u0437\u0435\u0439 \u0440\u0430\u0441\u043f\u043e\u043b\u0430\u0433\u0430\u0442\u044c) \u041e\u043d\u0435 \u0436\u0435 \u0438\u043c\u0435\u044e\u0442 \u0437\u0430\u0440\u0443\u0431\u0435\u0436\u043d\u0443\u044e \u043f\u0440\u0438\u0441\u0442\u0430\u0432\u043a\u0443 \u0431\u043b\u0430\u0433\u043e\u0440\u043e\u0434\u0441\u0442\u0432\u0430 \u2014 \u0444\u043e\u043d! \u0410\u0439 \u0424\u043e\u043d \u2026 \u2014 \u0438 \u0434\u0430\u043b\u0435\u0435 \u043f\u043e \u043f\u0430\u0441\u043f\u043e\u0440\u0442\u0443)))
p202
I1
tp203
a(V\u0420\u041e\u0421\u0421\u0418\u042f -"\u0443\u043d\u0438\u043a\u0430\u043b\u044c\u043d\u0430\u044f \u0441\u0442\u0440\u0430\u043d\u0430," \u0433\u0434\u0435 \u043d\u0430\u043b\u043e\u0433\u0438 \u043f\u043b\u0430\u0442\u044f\u0442\u0441\u044f \u043d\u0435 \u043f\u043e \u0437\u0430\u043a\u043e\u043d\u043e\u0434\u0430\u0442\u0435\u043b\u044c\u0441\u0442\u0432\u0443, \u0430 \u043a\u0443\u0434\u0430 \u0433\u043b\u0430\u0432\u043d\u044b\u0439 \u0441\u043a\u0430\u0436\u0435\u0442\u2026
p204
I-1
tp205
a(V\u041e\u043b\u044c\u0433\u0430. \u041d\u0443 \u0442\u0430\u043a\u0438 \u043f\u0440\u043e \u0412\u0430\u0441, \u0441\u0443\u0434\u0430\u0440\u044b\u043d\u044f, \u0432\u0441\u0451 \u043f\u043e\u043d\u044f\u0442\u043d\u043e. \u0421\u044b\u0442\u044b\u0439 \u0433\u043e\u043b\u043e\u0434\u043d\u043e\u0433\u043e \u043d\u0435 \u0440\u0430\u0437\u0443\u043c\u0435\u0435\u0442. \u0421 \u0434\u0440\u0443\u0433\u043e\u0439 \u0441\u0442\u043e\u0440\u043e\u043d\u044b \u2014 \u0433\u0440\u0430\u043c\u043e\u0442\u043d\u044b\u0439 \u043f\u0440\u043e\u0433\u0440\u0430\u043c\u043c\u0435\u0440, \u043d\u0435 \u0440\u0430\u0431\u043e\u0442\u0430\u044f \u0432 \u043a\u043e\u043c\u043f\u0430\u043d\u0438\u0438, \u043c\u043e\u0436\u0435\u0442 \u0434\u0438\u0441\u0442\u0430\u043d\u0446\u0438\u043e\u043d\u043d\u043e \u0437\u0430\u043b\u0435\u0437\u0442\u044c \u043d\u0430 \u0441\u0435\u0440\u0432\u0430\u043a\u0438 \u043f\u0440\u0435\u0434\u043f\u0440\u0438\u044f\u0442\u0438\u044f.
p206
I0
tp207
a(V\u043d\u0430 \u0448\u043e\u0441\u0441\u0435 \u0443 \u0433\u043e\u043b\u0443\u0431\u043e\u0433\u043e \u043f\u0440\u043e\u0432\u0430\u043b\u0438\u043b\u0430\u0441\u044f \u043f\u043b\u0438\u0442\u0430 \u0432\u0441\u0435\u0433\u043e \u0434\u0435\u0441\u044f\u0442\u044c \u0441\u0430\u043d\u0442\u0438\u043c\u0435\u0442\u0440\u043e\u0432 \u043d\u0435 \u043d\u0430 \u0433\u043e\u043b\u043e\u0432\u0443 \u0430\u0432\u0442\u043e
p208
I0
tp209
a(V\u041c\u0443\u0441\u043e\u0440\u0430 \u0432\u0441\u0435 \u0441\u0434\u0435\u043b\u0430\u043b\u0438 \u0447\u0442\u043e\u0431\u044b \u043d\u0435 \u0440\u0430\u0431\u043e\u0442\u0430\u0442\u044c. \u041a\u0442\u043e \u044d\u0442\u043e \u0432\u0438\u0434\u0435\u043b, \u0441\u0440\u0430\u0437\u0443 \u0441\u043a\u0430\u0436\u0443\u0442, \u0447\u0442\u043e \u0432\u0438\u043d\u043e\u0432\u0430\u0442\u044b \u043e\u0431\u0430 \u0432\u043e\u0434\u0438\u0442\u0435\u043b\u044f \u043f\u0440\u0438 \u0431\u0443\u043a\u0441\u0438\u0440\u043e\u0432\u043a\u0435. \u041f\u0440\u0438\u0432\u043b\u0435\u0447\u044c \u043a \u043e\u0442\u0432\u0435\u0442\u0441\u0442\u0432\u0435\u043d\u043d\u043e\u0441\u0442\u0438 \u0443\u0448\u043b\u0435\u043f\u0430\u043d\u043d\u044b\u0445 \u043c\u0443\u0441\u043e\u0440\u043e\u0432.
p210
I-1
tp211
a(Vnat, \u0430 \u0432\u043e\u0442 \u044d\u0442\u043e \u0443\u0436\u0435 \u043f\u0440\u043e\u0442\u0438\u0432\u043e\u0437\u0430\u043a\u043e\u043d\u043d\u043e, \u043f\u043e\u0441\u043e\u0431\u0438\u044f \u043d\u0435\u043b\u044c\u0437\u044f \u0442\u0440\u043e\u0433\u0430\u0442\u044c, \u0442\u0435\u043c \u0431\u043e\u043b\u0435\u0435 \u043f\u043e \u0443\u0445\u043e\u0434\u0443 \u0437\u0430 \u043a\u0435\u043c-\u0442\u043e, \u0430 \u0442\u0430\u043a\u0436\u0435 \u043d\u0435\u043b\u044c\u0437\u044f \u0437\u0430\u0431\u0438\u0440\u0430\u0442\u044c \u043f\u043e\u0441\u043b\u0435\u0434\u043d\u0435\u0435 \u043d\u0430 \u043f\u0440\u043e\u0436\u0438\u0432\u0430\u043d\u0438\u0435...
p212
I0
tp213
a(V\u0438\u043c\u0435\u043d\u043d\u043e, \u043a\u0430\u043a\u0430\u0442\u044c, \u0430 \u043d\u0435 \u0448\u0442\u0430\u043c\u043f\u043e\u0432\u0430\u0442\u044c.
p214
I0
tp215
a(V\u0412\u0430\u043b\u0435\u0440\u0438\u044f, \u0412\u0430\u043c \u0436\u0435 \u0447\u0451\u0440\u043d\u044b\u043c \u043f\u043e \u0431\u0435\u043b\u043e\u043c\u0443 \u043d\u0430\u043f\u0438\u0441\u0430\u043b\u0438 \u0432\u043d\u0438\u0437\u0443: \u0441\u0442\u0430\u043b\u043e \u043c\u0435\u043d\u044c\u0448\u0435 \u0433\u043e\u043d\u043e\u0440\u0435\u0438 \u0438 \u0441\u0438\u0444\u0438\u043b\u0438\u0441\u0430, \u044d\u0442\u043e \u043b\u0438 \u043d\u0435 \u043f\u043e\u0437\u0438\u0442\u0438\u0432?! )))))
p216
I1
tp217
a(V\u0413\u043e\u0441\u043f\u043e\u0434\u0430 \u0443\u0447\u0435\u043d\u044b\u0435, \u0430 \u043a\u0430\u0436\u0435\u0442\u0441\u044f \u043f\u043e-\u0440\u0443\u0441\u0441\u043a\u0438 \u043f\u0438\u0448\u0435\u0442\u0441\u044f " \u041d\u0410 \u0423\u041a\u0420\u0410\u0418\u041d\u0415\u2026"? \u041f\u0440\u043e\u0441\u0442\u0438\u0442\u0435, \u0447\u0442\u043e \u043d\u0435 \u0432 \u0442\u0435\u043c\u0443
p218
I0
tp219
a(V\u0422\u0430\u043a\u043e\u0435 \u043e\u0449\u0443\u0449\u0435\u043d\u0438\u0435, \u0447\u0442\u043e \u044d\u0442\u043e\u0439 "\u043e\u043f\u0442\u0438\u043c\u0438\u0437\u0430\u0446\u0438\u0435\u0439" \u043c\u0430\u0440\u0441\u0438\u0430\u043d\u0435 \u0437\u0430\u043d\u0438\u043c\u0430\u044e\u0442\u0441\u044f\u2026 40 \u043c\u0430\u0440\u0448\u0440\u0443\u0442\u0443 \u043d\u0435\u0442 \u043d\u0438\u043a\u0430\u043a\u043e\u0439 \u0430\u043b\u044c\u0442\u0435\u0440\u043d\u0430\u0442\u0438\u0432\u044b, \u0432\u043e\u043e\u0431\u0449\u0435 \u0438\u0437 \u041d\u0435\u0444\u0442\u044f\u043d\u0438\u043a\u043e\u0432 \u0432 \u0441\u0442\u043e\u0440\u043e\u043d\u0443 \u0418\u043a\u0435\u0438, \u0422\u043e\u0440\u0433\u043e\u0432\u043e\u0433\u043e \u0433\u043e\u0440\u043e\u0434\u0430, \u041a\u043e\u043d\u0442\u0438\u043d\u0435\u043d\u0442\u0430 \u043f\u0440\u0430\u043a\u0442\u0438\u0447\u0435\u0441\u043a\u0438 \u043d\u0435 \u043d\u0430 \u0447\u0451\u043c \u0434\u043e\u0435\u0445\u0430\u0442\u044c, \u043a\u0440\u043e\u043c\u0435 3-\u043a\u0438, \u043a\u043e\u0442\u043e\u0440\u0430\u044f \u043b\u0435\u0442\u043e\u043c \u043f\u0440\u0435\u0432\u0440\u0430\u0449\u0430\u0435\u0442\u0441\u044f \u0432 \u0434\u0430\u0447\u043d\u044b\u0439 \u0430\u0432\u0442\u043e\u0431\u0443\u0441, \u0438 14-\u0433\u043e, \u043a\u043e\u0442\u043e\u0440\u044b\u0439 \u043f\u0435\u0442\u043b\u044f\u0435\u0442 \u043f\u043e \u0432\u0441\u0435\u043c \u0433\u043e\u0440\u043e\u0434\u0430\u043c \u0438 \u0432\u0435\u0441\u044f\u043c. \u0417\u043d\u0430\u0447\u0438\u0442 \u043e\u043f\u044f\u0442\u044c \u043f\u0440\u0438\u0434\u0451\u0442\u0441\u044f \u0432 \u043f\u043e\u043b\u0443\u0441\u043e\u0433\u043d\u0443\u0442\u043e\u043c \u0441\u043e\u0441\u0442\u043e\u044f\u043d\u0438\u0438 \u0441\u0442\u043e\u044f \u0441 \u0440\u0438\u0441\u043a\u043e\u043c \u0434\u043b\u044f \u0436\u0438\u0437\u043d\u0438 \u0435\u0437\u0434\u0438\u0442\u044c \u043d\u0430 \u043c\u0430\u0440\u0448\u0440\u0443\u0442\u043a\u0430\u0445\u2026 \u0432\u043e\u0442 \u0442\u0430\u043a\u0430\u044f \u0432\u043e\u0442 "\u0437\u0430\u0431\u043e\u0442\u0430" \u043e \u043d\u0430\u0441\u0435\u043b\u0435\u043d\u0438\u0438
p220
I-1
tp221
a(V\u0430\u0432\u0442\u043e\u0440 \u0438\u043b\u0438 \u043d\u0435 \u0432 \u0442\u0435\u043c\u0435, \u0438\u043b\u0438 \u043f\u0440\u043e\u0432\u043e\u043a\u0430\u0442\u043e\u0440.
p222
I-1
tp223
a(VSvetoch/ka, \u043d\u0435 \u0434\u0440\u0435\u0439\u0444\u044c,\u0432\u0441\u0435 \u0431\u0443\u0434\u0435\u0442 \u0445\u043e\u0440\u043e\u0448\u043e,\u043a\u0430\u043a \u0432 \u0442\u043e\u043c \u0441\u0442\u0430\u0440\u043e\u043c \u0430\u043d\u0435\u043a\u0434\u043e\u0442\u0435:"...\u0422\u0430\u043a \u0431\u0443\u0434\u0435\u0442 \u043d\u0435 \u0432\u0441\u0435\u0433\u0434\u0430"
p224
I1
tp225
a(V\u0423\u0436\u0435 \u0434\u0430\u0436\u0435 \u043d\u0435 \u0441\u043c\u0435\u0448\u043d\u043e.
p226
I-1
tp227
a(V\u0410\u043d\u043d\u043055\u043e\u043c\u0441\u043a, \u043c\u043e\u0436\u043d\u043e \u0432\u043d\u0435\u0441\u0442\u0438 \u0432 \u0441\u043d\u0438\u043f \u043b\u044e\u0431\u043e\u0435 \u043a\u043e\u043b-\u0432\u043e \u043f\u0430\u0440\u043a\u043e\u0432\u043e\u0447\u043d\u044b\u0445 \u043c\u0435\u0441\u0442 \u0437\u0430 \u0432\u0430\u0448 \u0441\u0447\u0435\u0442. \u0422\u043e\u043b\u044c\u043a\u043e \u0446\u0435\u043d\u0430 \u043a\u0432\u0430\u0434\u0440\u0430\u0442\u043d\u043e\u0433\u043e \u043c\u0435\u0442\u0440\u0430 \u0432\u044b\u0440\u0430\u0441\u0442\u0435\u0442 \u043d\u0430 15 \u0442\u044b\u0441\u044f\u0447 \u0440\u0443\u0431\u043b\u0435\u0439, \u043a\u043e\u0442\u043e\u0440\u044b\u0435 \u0432\u044b \u0437\u0430\u0436\u043c\u0435\u0442\u0435. \u041a\u0443\u043f\u0438\u043b\u0438 5 \u043a\u043e\u0440\u044b\u0442 - \u043a\u0443\u043f\u0438\u0442\u0435 \u043f\u0430\u0440\u043a\u043e\u043c\u0435\u0441\u0442\u0430 \u0434\u043b\u044f \u043d\u0438\u0445. \u042f \u0441\u0435\u0431\u0435 \u0433\u0430\u0440\u0430\u0436 \u0432\u043e\u0437\u043b\u0435 \u0434\u043e\u043c\u0430 \u043a\u0443\u043f\u0438\u043b \u043d\u0430\u043f\u0440\u0438\u043c\u0435\u0440.
p228
I0
tp229
a(V\u0432\u0430\u0441\u0435. \u0430 \u0442\u044b \u0441 \u0441\u0435\u0431\u044f \u043d\u0430\u0447\u043d\u0438.
p230
I0
tp231
a(V\u0410 \u043f\u0440\u043e\u0441\u0442\u043e\u0439 \u043d\u0430\u0440\u043e\u0434 \u043d\u0435 \u0432 \u0441\u0447\u0435\u0442 \u0447\u0442\u043e \u043b\u0438 \u043c\u0430\u043b\u043e\u043b\u0435\u0442\u043d\u0438\u0435 \u0440\u0430\u0441\u0441\u0443\u0436\u0434\u0435\u043d\u0438\u0435 \u044d\u0442\u043e\u0442 \u0446\u0435\u0445 \u043f\u0440\u0438\u043d\u043e\u0441\u0438\u043b \u0431\u043e\u043b\u044c\u0448\u0443\u044e \u043f\u0440\u0438\u0431\u044b\u043b\u044c \u0442\u0435\u043f\u0435\u0440\u044c \u043d\u0435 \u043d\u0430\u043b\u043e\u0433\u043e\u0432 \u043d\u0435 \u0437\u0430\u0440\u043f\u043b\u0430\u0442 \u043f\u043e\u043a\u0430 \u0435\u0433\u043e \u0432\u043e\u0441\u0442\u0430\u043d\u043e\u0432\u044f\u0442 \u043e\u0442 \u0446\u0435\u0445\u0430 \u043d\u0438\u0447\u0435\u0433\u043e \u043d\u0435 \u043e\u0441\u0442\u0430\u043b\u043e\u0441\u044c
p232
I-1
tp233
a(V\u0430 \u044f \u0441\u043b\u044b\u0448\u0430\u043b)\u0434\u043e\u043c\u0430 \u0441\u0438\u0434\u0435)\u0434\u0443\u043c\u0430\u043b \u0430\u0432\u0430\u0440\u0438\u044f \u043e\u043f\u044f\u0442\u044c \u0443 \u043f\u0435\u0440\u0435\u043a\u0440\u0435\u0441\u0442\u043a\u0430..\u0432\u044b\u0448\u0435\u043b \u043d\u0435\u0442 \u043d\u0438\u0447\u0435)\u0434\u0430 \u0438 \u0443\u0434\u0430\u0440 \u0431\u044b\u043b \u043f\u0440\u044f\u043c \u0442\u0430\u043a\u043e\u0439 \u0433\u043b\u0443\u0431\u043e\u043a\u0438\u0439)
p234
I0
tp235
a(V\u0422\u043e\u0432\u0430\u0440\u0438\u0449\u0438, \u043f\u043e\u0447\u0435\u043c\u0443 \u0413\u041e\u0421\u0422 \u0441\u0442\u0430\u043b \u0448\u0438\u0444\u0440\u043e\u0432\u0430\u0442\u044c\u0441\u044f?
p236
I0
tp237
a(V\u041f\u041b\u042e\u0421\u0423\u0415\u041c \u041a\u041e\u0413\u041e \u0417\u0410\u0414\u041e\u041b\u0411\u0410\u041b\u0410 \u0422\u0410\u041a\u0410\u042f \u0412\u0415\u0421\u041d\u0410!!!
p238
I-1
tp239
a(V\u0432\u0441\u0435 \u043c\u044b \u0433\u043e\u043d\u0434\u043e\u043d\u044b
p240
I-1
tp241
a(V\u0441\u0430\u043c\u0438 \u0432\u0437\u043e\u0440\u0432\u0430\u043b\u0438 \u043f\u0435\u0440\u0435\u0434 \u0432\u0442 \u0444\u0430\u0437\u043e\u0439 \u0430\u0442\u043e
p242
I0
tp243
a(V\u0414\u0440\u0443\u0437\u044c\u044f! \u0410\u043a\u0442\u0438\u0432\u043d\u0435\u0435 \u0431\u043e\u043b\u0435\u0439\u0442\u0435 \u0437\u0430 \u0410\u0432\u0430\u043d\u0433\u0430\u0440\u0434, \u0438 \u0443\u0441\u043f\u0435\u0445 \u043d\u0435 \u0437\u0430\u0441\u0442\u0430\u0432\u0438\u0442 \u0441\u0435\u0431\u044f \u0434\u043e\u043b\u0433\u043e \u0436\u0434\u0430\u0442\u044c.
p244
I1
tp245
a(V\u041e\u0431\u044b\u0447\u043d\u044b\u0439 13 \u043b\u0435\u0442\u043d\u0438\u0439 \u0440\u0435\u0431\u0435\u043d\u043e\u043a. \u0415\u0441\u0442\u044c \u0434\u0435\u0432\u043e\u0447\u043a\u0438 \u043c\u0438\u043b\u0435\u0435 \u0438 \u043a\u0440\u0430\u0441\u0438\u0432\u0435\u0435 \u041f\u043e\u043b\u0438\u043d\u044b, \u0435\u0441\u043b\u0438 \u0440\u0443\u043a\u043e\u0432\u043e\u0434\u0441\u0442\u0432\u043e\u0432\u0430\u0442\u044c\u0441\u044f \u043d\u044b\u043d\u0435\u0448\u043d\u0438\u043c\u0438 \u043a\u0440\u0438\u0442\u0435\u0440\u0438\u044f\u043c\u0438 \u0436\u0435\u043d\u0441\u043a\u043e\u0439 \u043f\u0440\u0438\u0432\u043b\u0435\u043a\u0430\u0442\u0435\u043b\u044c\u043d\u043e\u0441\u0442\u0438\u2026 \u0410 \u0432\u043e\u043e\u0431\u0449\u0435 - \u043d\u0435\u043a\u0440\u0430\u0441\u0438\u0432\u044b\u0445 \u0434\u0435\u0442\u0435\u0439 \u043d\u0435 \u0431\u044b\u0432\u0430\u0435\u0442!)
p246
I1
tp247
a(V\u041e\u043c\u0438\u0447\u0443! \u041d\u0443\u0436\u043d\u043e \u0434\u0435\u043d\u044c\u0433\u0438 "\u043e\u0442\u043c\u044b\u0442\u044c", \u0430 \u044d\u0442\u043e \u043e\u0434\u0438\u043d \u0438\u0437 \u043f\u0443\u0442\u0435\u0439! \u0412\u0435\u0434\u044c \u0432\u043e\u0440\u0443\u044e\u0442 \u0443\u0436\u0435 \u0432 \u043e\u0442\u043a\u0440\u044b\u0442\u0443\u044e!!!
p248
I-1
tp249
a(V\u0421\u043e\u0432\u0435\u0440\u0448\u0435\u043d\u043d\u043e \u043f\u0440\u0430\u0432\u0438\u043b\u044c\u043d\u043e\u0435 \u0440\u0435\u0448\u0435\u043d\u0438\u0435. \u041e\u0442 \u0431\u0435\u0448\u0435\u043d\u0441\u0442\u0432\u0430 \u041c\u043e\u0441\u043a\u0432\u044b, \u0416\u0438\u0440\u0438\u043d\u043e\u0432\u0441\u043a\u0438\u0439 \u0443\u043f\u043e\u0442\u0440\u0435\u0431\u043b\u044f\u043b \u0431\u043e\u043b\u0435\u0435 \u0444\u0438\u0437\u0438\u043e\u043b\u043e\u0433\u0438\u0447\u0435\u0441\u043a\u043e\u0435 \u0432\u044b\u0440\u0430\u0436\u0435\u043d\u0438\u0435, \u043d\u0430\u0434\u043e \u043f\u0440\u0435\u0434\u043e\u0445\u0440\u0430\u043d\u044f\u0442\u044c\u0441\u044f. \u0415\u0441\u043b\u0438 \u043f\u043e\u043c\u043e\u0436\u0435\u0442 \u0441\u0442\u0435\u043d\u0430, \u0442\u043e \u043f\u043e\u0447\u0435\u043c\u0443 \u0431\u044b \u0438 \u043d\u0435\u0442.
p250
I-1
tp251
a(V\u042d\u0442\u043e \u043d\u0435 \u0437\u0430\u0441\u043b\u0443\u0433\u0430 \u0440\u0443\u0441\u0441\u043a\u0438\u0445 (\u043d\u0430\u0441) \u0438 \u043d\u0435 \u0441\u0432\u0438\u0434\u0435\u0442\u0435\u043b\u044c\u0441\u0442\u0432\u043e \u0438\u0445 (\u043d\u0430\u0448\u0435\u0433\u043e) \u0443\u043c\u0430, \u0430 \u0441\u043b\u0435\u0434\u0441\u0442\u0432\u0438\u0435 \u0438\u0437 \u0441\u0438\u0441\u0442\u0435\u043c\u0430\u0442\u0438\u0447\u0435\u0441\u043a\u043e\u0433\u043e \u043e\u0431\u043c\u0430\u043d\u0430 \u0432\u043b\u0430\u0441\u0442\u044c\u044e \u043d\u0430 \u043f\u0440\u043e\u0442\u044f\u0436\u0435\u043d\u0438\u0438 \u0432\u0441\u0435\u0439 \u0438\u0445 (\u043d\u0430\u0448\u0435\u0439) \u0438\u0441\u0442\u043e\u0440\u0438\u0438. \u0412 \u0446\u0438\u0432\u0438\u043b\u0438\u0437\u043e\u0432\u0430\u043d\u043d\u043e\u043c \u043c\u0438\u0440\u0435 \u044f \u0442\u043e\u043b\u044c\u043a\u043e \u0413\u0438*\u0442\u043b\u0435\u0440\u0430 \u0432 \u043a\u0430\u0447\u0435\u0441\u0442\u0432\u0435 \u043e\u0431\u043c\u0430\u043d\u0449\u0438\u043a\u0430 \u043f\u043e\u043c\u043d\u044e, \u043f\u043e\u0447\u0435\u043c\u0443 \u043d\u0430\u0446\u0438\u0437\u043c \u0438 \u043e\u0441\u0443\u0436\u0434\u0435\u043d.
p252
I-1
tp253
a(V\u0437\u0430\u0442\u043e\u0445\u0440\u044b\u043c\u043d\u0430\u0448!
p254
I-1
tp255
a(V\u0422\u044b \u0438\u0434\u0438\u043e\u0442?
p256
S'-'
p257
tp258
a(V\u0410 \u0432\u0441\u0451-\u0442\u0430\u043a\u0438 \u0441\u043b\u043e\u0432\u043e "\u043f\u043e\u0447\u0442\u0438" \u2014 \u043a\u043b\u044e\u0447\u0435\u0432\u043e\u0435\u2026
p259
I0
tp260
a(V\u0413\u0440\u0438\u0433\u0443\u0440\u043a\u043e \u043e\u0431\u043c\u0430\u043d\u0443\u043b \u043d\u0430\u0438\u0432\u043d\u0443\u044e \u041f\u043e\u043b\u0435\u0436\u0430\u0435\u0432\u0443. \u041f\u043e\u0441\u043a\u043e\u043b\u044c\u043a\u0443 \u043e\u043d\u0430 \u043c\u0430\u043b\u043e \u0447\u0442\u043e \u043f\u043e\u043d\u0438\u043c\u0430\u0435\u0442 \u0432 \u0442\u0435\u0430\u0442\u0440\u0435, \u043b\u0435\u0433\u043a\u043e \u043a\u0443\u043f\u0438\u043b\u0430\u0441\u044c . \u0420\u0435\u0437\u0443\u043b\u044c\u0442\u0430\u0442- \u0441\u0442\u0440\u0438\u043f\u0442\u0438\u0437\u043d\u044b\u0439 \u0442\u0435\u0430\u0442\u0440 . . \u0417\u0430\u0436\u0438\u0433\u0430\u043b\u043a\u0430 2!!!
p261
I-1
tp262
a(V\u041c\u0430\u0440\u0430\u0437\u043c \u043a\u0440\u0435\u043f\u0447\u0430\u0435\u0442..
p263
I-1
tp264
a(VPEREZ, \u0432\u044b \u0442\u0430\u043a \u0433\u043e\u0432\u043e\u0440\u0438\u0442\u0435, \u0431\u0443\u0434\u0442\u043e \u041c\u044d\u043d\u0441\u043e\u043d \u0437\u0430 \u0441\u043f\u0430\u0441\u0438\u0431\u043e \u0432 \u0442\u0443\u0440 \u043f\u043e\u0435\u0445\u0430\u043b. \u0442\u0430\u043a\u043e\u0439 \u0436\u0435 \u0447\u0435\u0441\u043e\u0432\u0449\u0438\u043a \u043f\u043e \u0441\u0443\u0442\u0438. \u043c\u0438\u043d\u0443\u0441\u0443\u044e\u0449\u0438\u043c \u043f\u0440\u043e\u0441\u044c\u0431\u0430 \u0430\u0440\u0433\u0443\u043c\u0435\u043d\u0442\u0438\u0440\u043e\u0432\u0430\u0442\u044c.
p265
I0
tp266
a(V\u041a \u0441\u043e\u0436\u0430\u043b\u0435\u043d\u0438\u044e, \u0437\u043b\u043e\u0439 \u043d\u0430\u0440\u043e\u0434 \u043f\u043e\u0447\u0435\u043c\u0443-\u0442\u043e. \u041f\u0440\u0438\u044f\u0442\u043d\u043e, \u0447\u0442\u043e \u043d\u0430\u0448\u0435\u0433\u043e \u0436\u0443\u0440\u043d\u0430\u043b\u0438\u0441\u0442\u0430 \u0437\u0430\u043c\u0435\u0442\u0438\u043b\u0438. \u0412\u043e\u0442 \u043a\u0430\u043a \u0410\u043a\u0438\u043d\u0447\u0435\u043d\u043a\u043e \u043f\u043e\u0434\u043d\u044f\u043b\u0441\u044f \u043d\u0430 \u0444\u0435\u0434\u0435\u0440\u0430\u043b\u044c\u043d\u043e\u043c \u0422\u0412. \u041f\u043e\u043b\u043d\u043e\u0441\u0442\u044c\u044e \u0441\u043e\u0433\u043b\u0430\u0441\u0435\u043d \u0441 \u0410.\u0434\u0432\u043e\u043a\u0430\u0442\u043e\u043c. \u041d.\u0417\u0443\u0441\u0438\u043a \u0440\u0430\u0431\u043e\u0442\u0430\u043b \u0434\u043e\u0431\u0440\u043e\u0441\u043e\u0432\u0435\u0441\u0442\u043d\u043e \u0438 \u043c\u0435\u0441\u0442\u043e \u0441\u0432\u043e\u0435 \u044f\u0432\u043d\u043e \u043f\u0435\u0440\u0435\u0441\u0438\u0434\u0435\u043b. \u0415\u043c\u0443 \u043f\u043e\u0440\u0430 \u0432\u044b\u0445\u043e\u0434\u0438\u0442\u044c \u043d\u0430 \u0431\u043e\u043b\u0435\u0435 \u0432\u044b\u0441\u043e\u043a\u0438\u0439 \u0443\u0440\u043e\u0432\u0435\u043d\u044c. \u0425\u043e\u0442\u044f, \u043a\u043e\u043d\u0435\u0447\u043d\u043e, \u0436\u0430\u043b\u044c, \u0447\u0442\u043e \u043d\u0430\u0448\u0430 \u043e\u0431\u043b\u0430\u0441\u0442\u044c \u043d\u0435 \u043c\u043e\u0436\u0435\u0442 \u043f\u0440\u0435\u0434\u043b\u043e\u0436\u0438\u0442\u044c \u0430\u0434\u0435\u043a\u0432\u0430\u0442\u043d\u044b\u0445 \u0443\u0441\u043b\u043e\u0432\u0438\u0439, \u0447\u0442\u043e\u0431\u044b \u043b\u044e\u0434\u0438 \u043d\u0435 \u0443\u0445\u043e\u0434\u0438\u043b\u0438. \u041d\u0438\u043a\u043e\u043b\u0430\u044e \u0438\u0441\u043a\u0440\u0435\u043d\u043d\u0435 \u0436\u0435\u043b\u0430\u044e \u0443\u0441\u043f\u0435\u0445\u043e\u0432. \u041a\u0442\u043e \u0441 \u043d\u0438\u043c \u0440\u0430\u0431\u043e\u0442\u0430\u043b \u2014 \u0437\u043d\u0430\u044e\u0442 \u2014 \u043f\u043e\u0434\u043b\u0435\u0446\u043e\u043c \u043e\u043d \u043d\u0435 \u0431\u044b\u043b, \u0438 \u0441\u0442\u0430\u0440\u0430\u043b\u0441\u044f \u0440\u0430\u0431\u043e\u0442\u0430\u0442\u044c \u0445\u043e\u0440\u043e\u0448\u043e.
p267
I1
tp268
a(V\u041a\u0430\u043a \u0442\u0432\u043e\u0435\u0439 \u043c\u0430\u043c\u0430\u0448\u0435? \u042f \u0435\u0439 \u0443\u0436\u0435 \u0437\u0430\u0441\u0443\u043d\u0443\u043b
p269
I-1
tp270
a(V\u043a\u0430\u043a\u0430\u044f \u043e\u0442 \u0445\u043e\u043a\u043a\u0435\u044f \u043f\u0440\u0438\u0431\u044b\u043b\u044c? 
p271
I0
tp272
a(V55, \u043d\u0435 \u0445\u043e\u0434\u0438\u0442\u0435, \u043d\u0435 \u0438\u0434\u0438\u0442\u0435 \u043d\u0430 \u043f\u043e\u0432\u043e\u0434\u0443
p273
I0
tp274
a(V\u0421\u0447\u0438\u0442\u0430\u044e \u0447\u0442\u043e \u0434\u043b\u044f \u043e\u043c\u0438\u0447\u0435\u0439 \u0441\u0435\u0439\u0447\u0430\u0441 \u0441\u0430\u043c\u043e\u0435 \u0443\u0434\u043e\u0431\u043d\u043e\u0435 \u0432\u0440\u0435\u043c\u044f \u0438 \u043f\u0435\u0440\u0435\u0432\u043e\u0434\u0438\u0442\u044c \u0432\u0440\u0435\u043c\u044f \u0434\u043b\u044f \u043c\u043d\u043e\u0433\u0438\u0445 \u0431\u0443\u0434\u0435\u0442 \u043d\u0430\u043a\u043b\u0430\u0434\u043d\u043e \u043d\u0435 \u0442\u043e\u043b\u044c\u043a\u043e \u0434\u043b\u044f \u043a\u0430\u0440\u043c\u0430\u043d\u0430 ,\u043d\u043e \u0438 \u0434\u043b\u044f \u0437\u0434\u043e\u0440\u043e\u0432\u044c\u044f,\u0430 \u0432\u043e\u0441\u0442\u043e\u0447\u043d\u044b\u043c \u043e\u0431\u043b\u0430\u0441\u0442\u044f\u043c \u041e\u043c\u0441\u043a\u0430 \u0432\u043e\u043e\u0431\u0449\u0435 \u0441\u043e\u043b\u043d\u0446\u0430 \u043d\u0435 \u0432\u0438\u0434\u043d\u043e \u0431\u0443\u0434\u0435\u0442.
p275
I0
tp276
a(V\u041c\u043d\u0435  \u043a\u0430\u0436\u0435\u0442\u0441\u044f   \u0432\u0441\u0435   \u0434\u0435\u0442\u0438   \u043e\u0434\u0430\u0440\u0435\u043d\u043d\u044b\u0435  \u0438  \u043d\u0435\u0442  \u0434\u0435\u0442\u0435\u0439  \u0431\u0435\u0437  \u0442\u0430\u043b\u0430\u043d\u0442\u0430   ,  \u043d\u043e  \u043f\u043e   \u043f\u0440\u0430\u0432\u0434\u0435    \u0443  "\u043c\u0430\u0440\u0448\u0430\u043b\u043b\u0430  \u0441\u0432\u043e\u0438  \u0432\u043d\u0443\u043a\u0438   \u0438   \u0433\u0435\u043d\u0435\u0440\u0430\u043b\u044c\u0441\u043a\u043e\u043c\u0443  \u0432\u043d\u0443\u043a\u0443    \u0443\u0436\u0435   \u043d\u0435   \u0431\u0443\u0434\u0435\u0442   \u043c\u0430\u0440\u0448\u0430\u043b\u043b\u043e\u043c"-- \u043d\u0430\u0440\u043e\u0434\u043d\u0430\u044f   \u043c\u0443\u0434\u0440\u043e\u0441\u0442\u044c.
p277
I1
tp278
a(V\u042f \u043f\u043e\u043c\u043d\u044e, \u043f\u0440\u043e \u043f\u043e\u0436\u0430\u0440 \u0432 \u0413\u0435\u043e\u043c\u0430\u0440\u0442\u0435 \u0432\u0441\u0435 \u0433\u043e\u0432\u043e\u0440\u0438\u043b\u0438, \u0447\u0442\u043e \u044d\u0442\u043e \u043d\u0435 \u0441 \u043f\u0440\u043e\u0441\u0442\u0430 \u0438 \u0432\u0434\u0440\u0443\u0433 2 \u043d\u043e\u0432\u044b\u0445 \u0413\u0435\u043e\u043c\u0430\u0440\u0442\u0430 \u043f\u043e\u044f\u0432\u0438\u043b\u0438\u0441\u044c \u043e\u0434\u043d\u043e\u0432\u0440\u0435\u043c\u0435\u043d\u043d\u043e! \u0410 \u0441\u0435\u0439\u0447\u0430\u0441 \u0434\u0430\u0436\u0435 \u0441\u0442\u0440\u0430\u043d\u043d\u043e, \u043f\u0435\u0440\u0435\u0434 \u041d\u043e\u0432\u044b\u043c \u0433\u043e\u0434\u043e\u043c \u0437\u0430\u043a\u0440\u044b\u0442\u044c\u0441\u044f? \u042d\u0442\u043e \u043f\u043e\u0434\u043f\u0438\u0441\u0430\u0442\u044c \u0441\u0435\u0431\u0435 \u043f\u0440\u0438\u0433\u043e\u0432\u043e\u0440, \u0432\u0435\u0434\u044c \u0441\u0435\u0439\u0447\u0430\u0441 \u0432 \u0434\u0435\u043a\u0430\u0431\u0440\u0435 \u0434\u043e 50% \u041f\u0420\u0418\u0411\u042b\u041b\u0418 \u043e\u0442 \u043d\u043e\u0432\u043e\u0433\u043e\u0434\u043d\u0435\u0439 \u043e\u0431\u0436\u0438\u0440\u0430\u043b\u043e\u0432\u043a\u0438! \u0410 \u043f\u043e\u043b\u043a\u0438 \u0443 \u043d\u0438\u0445 \u0443\u0436\u0435 \u0434\u0430\u0432\u043d\u043e \u043f\u0443\u0441\u0442\u044b\u0435... \u0427\u0442\u043e-\u0442\u043e \u0441\u0442\u0440\u0430\u043d\u043d\u043e\u0435!
p279
I0
tp280
a(V\u0443\u0435\u0445\u0430\u043b\u0430, \u0443\u0436\u0435 \u0433\u043e\u0434 \u0432 \u0434\u0440\u0443\u0433\u043e\u043c \u0433\u043e\u0440\u043e\u0434\u0435, \u043d\u0435 \u043e\u0442 \u0433\u043e\u0440\u043e\u0434\u0430 \u0431\u0435\u0436\u0430\u043b\u0430, \u043e\u0442 \u0441\u0435\u0431\u044f, \u043d\u0430\u0432\u0435\u0440\u043d\u043e\u0435, \u043e\u0447\u0435\u043d\u044c \u0441\u043a\u0443\u0447\u0430\u044e, \u041e\u043c\u0441\u043a \u0433\u043e\u0440\u043e\u0434 \u0445\u043e\u0440\u043e\u0448\u0438\u0439, \u0443\u044e\u0442\u043d\u044b\u0439, \u0434\u043e\u0431\u0440\u044b\u0439, \u0437\u0434\u0435\u0441\u044c \u043d\u0430 \u042e\u0433\u0435 - \u0441\u043f\u043b\u043e\u0448\u043d\u043e\u0435 \u0445\u0430\u0431\u0430\u043b\u044c\u0441\u0442\u0432\u043e, \u044f \u043c\u0435\u0447\u0442\u0430\u044e \u0432\u0435\u0440\u043d\u0443\u0442\u044c\u0441\u044f \u0442\u0435\u043f\u0435\u0440\u044c, \u043d\u043e \u0443\u0440\u043e\u0432\u0435\u043d\u044c \u0437\u0430\u0440\u043f\u043b\u0430\u0442\u044b \u0438 \u043a\u0430\u0440\u044c\u0435\u0440\u043d\u044b\u0435 \u0432\u043e\u0437\u043c\u043e\u0436\u043d\u043e\u0441\u0442\u0438 \u0417\u0414\u0415\u0421\u042c \u043d\u0435 \u0434\u0430\u044e\u0442 \u044d\u0442\u043e\u0433\u043e \u0441\u0434\u0435\u043b\u0430\u0442\u044c. 
p281
I0
tp282
a(V\u041d\u0443 \u043d\u0435 \u0437\u043d\u0430\u044e, \u0438\u0434\u0443 \u0432\u0447\u0435\u0440\u0430 \u0434\u043e \u0423\u041a \u0437\u0430 \u043a\u0432\u0430\u0440\u0442\u0438\u0440\u0443 \u0437\u0430\u043f\u043b\u0430\u0442\u0438\u0442\u044c, \u043f\u0440\u044f\u043c\u043e \u043f\u0435\u0440\u0435\u0434 \u044d\u0442\u0438\u043c \u0437\u0434\u0430\u043d\u0438\u0435\u043c, \u0433\u0434\u0435 \u043e\u0444\u0438\u0441 \u0423\u041a \u0440\u0430\u0441\u043f\u043e\u043b\u0430\u0433\u0430\u0435\u0442\u0441\u044f \u043d\u0430 \u0442\u0440\u043e\u0442\u0443\u0430\u0440\u0435 \u0441\u0442\u043e\u0438\u0442 \u043e\u0433\u0440\u043e\u043c\u043d\u044b\u0439 \u0414\u0436\u0438\u043f \u041f\u0430\u0442\u0440\u0438\u043e\u0442. \u042f-\u0442\u043e \u043f\u0440\u043e\u0448\u043b\u0430 \u043c\u0435\u0436\u0434\u0443 \u043d\u0438\u043c \u0438 \u0433\u0430\u0437\u043e\u043d\u043e\u043c, \u0430 \u043d\u0430\u0432\u0441\u0442\u0440\u0435\u0447\u0443 \u0448\u043b\u0430 \u0434\u0435\u0432\u0443\u0448\u043a\u0430 \u0441 \u043a\u043e\u043b\u044f\u0441\u043a\u043e\u0439, \u043f\u043e\u0434\u0443\u043c\u0430\u043b\u0430 \u043f\u0430\u0440\u0443 \u0441\u0435\u043a\u0443\u043d\u0434 \u0438 \u043d\u0430\u0447\u0430\u043b\u0430 \u043f\u043e \u0432\u044b\u0441\u043e\u043a\u043e\u043c\u0443 \u0431\u043e\u0440\u0434\u044e\u0440\u0443 \u0441\u043f\u0443\u0441\u043a\u0430\u0442\u044c \u043a\u043e\u043b\u044f\u0441\u043a\u0443 \u043d\u0430 \u0434\u043e\u0440\u043e\u0433\u0443, \u0447\u0442\u043e\u0431\u044b \u043e\u0431\u043e\u0439\u0442\u0438 \u044d\u0442\u043e\u0442 \u0414\u0436\u0438\u043f. \u0418 \u043a\u0442\u043e \u0435\u0433\u043e \u0445\u043e\u0437\u044f\u0438\u043d\u0443 \u0447\u0442\u043e \u0441\u043a\u0430\u0436\u0435\u0442? \u0418 \u043a\u043e\u043c\u0443 \u043e\u043d \u0447\u0442\u043e \u0437\u0430\u043f\u043b\u0430\u0442\u0438\u0442? \u0423 \u0442\u0430\u043a\u0438\u0445 \u043b\u044e\u0434\u0435\u0439 \u0432\u0441\u0435 \u0441\u0445\u0432\u0430\u0447\u0435\u043d\u043e, \u0437\u0430 \u0432\u0441\u0435 \u0437\u0430\u043f\u043b\u0430\u0447\u0435\u043d\u043e. \u0410 \u0441 \u044d\u0442\u0438\u043c\u0438 \u0448\u0442\u0440\u0430\u0444\u0430\u043c\u0438 \u0431\u0443\u0434\u0443\u0442 \u043f\u0440\u0438\u043a\u0430\u043f\u044b\u0432\u0430\u0442\u044c\u0441\u044f \u043a \u0432\u043b\u0430\u0434\u0435\u043b\u044c\u0446\u0430\u043c \u043d\u0435\u0434\u043e\u0440\u043e\u0433\u0438\u0445 \u0430\u0432\u0442\u043e\u043c\u043e\u0431\u0438\u043b\u0435\u0439.
p283
I-1
tp284
a(V\u0422\u0430\u0442\u044c\u044f\u043d\u0430, \u0432\u0441\u0435 \u0442\u0430\u043c \u0435\u0441\u0442\u044c, \u043f\u0435\u0442\u0438\u0446\u0438\u044f \u043d\u0430 \u043c\u0435\u0441\u0442\u0435, \u0442\u043e\u043b\u044c\u043a\u043e \u0447\u0442\u043e \u043f\u043e\u0434\u043f\u0438\u0441\u0430\u043b\u0430 (\u0443\u0434\u0430\u043b\u0438\u0442\u0435 \u0432 \u0430\u0434\u0440\u0435\u0441\u043d\u043e\u0439 \u0441\u0442\u0440\u043e\u043a\u0435 \u0447\u0430\u0441\u0442\u044c \u0430\u0434\u0440\u0435\u0441\u0430, \u0433\u0434\u0435 \u0441\u0441\u044b\u043b\u043a\u0430 \u043d\u0430 \u0438\u0441\u0442\u043e\u0447\u043d\u0438\u043a \u0438 \u0432\u0441\u0435 \u0437\u0430\u0440\u0430\u0431\u043e\u0442\u0430\u0435\u0442)
p285
I0
tp286
a(V\u0423\u0434\u0430\u043b\u044f\u044e\u0442, \u0441\u043e\u0431\u0430\u043a\u0438, \u043a\u043e\u043c\u043c\u0435\u043d\u0442\u0430\u0440\u0438\u0438!
p287
I-1
tp288
a(V\u043c\u043d\u0435 \u0436\u0430\u043b\u044c \u0442\u0435\u0445, \u0447\u0442\u043e \u0441\u0447\u0438\u0442\u0430\u0435\u0442 \u0434\u043b\u044f \u0441\u0435\u0431\u044f \u0432\u043e\u0437\u043c\u043e\u0436\u043d\u044b\u043c \u0443\u0447\u0430\u0441\u0442\u0438\u0435 \u0432 \u0434\u0430\u043d\u043d\u043e\u043c \u043f\u043e\u0437\u043e\u0440\u043d\u043e\u043c \u043c\u0435\u0440\u043e\u043f\u0440\u0438\u044f\u0442\u0438\u0438
p289
I-1
tp290
a(V\u0410\u043b\u0435\u043d\u0430, \u0438 \u0432\u0441\u0435 \u0436\u0435 \u0432\u0441\u043f\u043e\u043c\u043e\u0436\u0435\u043d\u0438\u044f \u0434\u043e\u043b\u0436\u043d\u044b \u0431\u044b\u0442\u044c \u043f\u0440\u043e\u0434\u0443\u043c\u0430\u043d\u043d\u044b\u043c\u0438 \u0438 \u0430\u0434\u0435\u043a\u0432\u0430\u0442\u043d\u044b\u043c\u0438, \u0430 \u043d\u0430 \u0443\u043b\u0438\u0446\u0435 \u043e\u043d\u0430 \u0432\u043e\u0437\u043c\u043e\u0436\u043d\u043e \u0435\u0449\u0435 \u0436\u0438\u043b\u0430 \u0431\u044b, \u043d\u0435 \u043f\u0435\u0440\u0432\u0430\u044f \u0438 \u043d\u0435 \u043f\u043e\u0441\u043b\u0435\u0434\u043d\u044f\u044f, \u043a\u043e\u0448\u043a\u0438 \u043f\u0440\u0435\u043a\u0440\u0430\u0441\u043d\u043e \u043d\u0430\u0445\u043e\u0434\u044f\u0442 \u0433\u0434\u0435 \u0437\u0438\u043c\u043e\u0432\u0430\u0442\u044c. \u042d\u0442\u043e \u043d\u0435 \u043f\u0440\u0438\u0437\u044b\u0432 \u0432\u044b\u0433\u043e\u043d\u044f\u0442\u044c \u043a\u043e\u0448\u0430\u0447\u044c\u0438\u0445 \u043d\u0430 \u0443\u043b\u0438\u0446\u0443, \u043d\u0430\u043e\u0431\u043e\u0440\u043e\u0442. \u0438 \u0434\u0430 \u044f \u0441\u0430\u043c \u043f\u043e\u0434\u0431\u0438\u0440\u0430\u043b \u0436\u0438\u0432\u043e\u0442\u0438\u043d \u0438 \u0442\u0430\u0449\u0438\u043b \u0434\u043e\u043c\u043e\u0439
p291
I0
tp292
a(V\u043e\u043e\u043e)) \u043d\u0435 \u0443\u0441\u043f\u0435\u043b\u0430 \u043d\u043e\u0432\u043e\u0441\u0442\u044c \u043f\u043e\u044f\u0432\u0438\u0442\u044c\u0441\u044f - \u0443\u0436\u0435 \u0442\u0440\u043e\u043b\u043b\u0438 \u043a\u0430\u043a \u043a\u043b\u043e\u043f\u044b \u0438\u0437 \u0449\u0435\u043b\u0435\u0439 \u043f\u043e\u043b\u0435\u0437\u043b\u0438... \u0432\u0441\u0435 \u0433\u043e\u0441\u0442\u044b, \u0431\u0443\u0445\u0438\u0447\u0438, \u043b\u0438\u0444\u043e\u043d\u044b \u0438 \u043f\u0440\u043e\u0447\u0430\u044f \u0448\u043b\u043e...\u0431\u043e\u0442\u0438\u043d\u0430 - \u0431\u044b\u0441\u0442\u0440\u043e \u043d\u0430 \u0443\u0440\u043e\u043a!!!
p293
I-1
tp294
a(V\u0427\u0435\u043c \u0442\u0435\u0431\u044f \u044d\u0442\u0430 \u043a\u0430\u0440\u0442\u0430 \u043d\u0435 \u0443\u0441\u0442\u0440\u0430\u0438\u0432\u0430\u0435\u0442? \u0421\u044a\u0435\u0437\u0434\u043e\u0432\u0441\u043a\u0430\u044f \u0438 \u041a\u043e\u0440\u043e\u043b\u0435\u043d\u043a\u043e \u043f\u043e\u043a\u0430\u0437\u0430\u043d\u044b
p295
I0
tp296
a(V\u041f\u043e\u0440\u0430\u0434\u0443\u044e\u0441\u044c \u0437\u0430 \u043d\u0438\u0445, \u0441\u043a\u043e\u043b\u044c\u043a\u043e \u0432\u0435\u0440\u0451\u0432\u043e\u0447\u043a\u0435 \u043d\u0435 \u0432\u0438\u0442\u044c\u0441\u044f.... . \u041d\u0430\u043a\u043e\u043d\u0435\u0446 \u0442\u043e \u043a\u043e\u043d\u0447\u0438\u043b\u0430\u0441\u044c \u044d\u0442\u0430 \u0432\u0435\u0440\u0451\u0432\u043a\u0430. \u041d\u043e \u043d\u0435\u044f\u0441\u043d\u043e, \u0430 \u043d\u0430\u043a\u0430\u0437\u0430\u043b\u0438 \u043b\u0438 \u0438\u0445 \u043d\u0430\u0447\u0430\u043b\u044c\u043d\u0438\u043a\u0430, \u0432\u0430\u0436\u043d\u044b\u0439 \u0442\u0430\u043a\u043e\u0439 \u0445\u043e\u0434\u0438\u043b. \u0420\u0443\u043a\u043e\u0432\u043e\u0434\u0438\u043b \u0432\u0437\u044f\u0442\u043e\u0447\u043d\u0438\u043a\u0430\u043c\u0438 , \u0430 \u0441 \u043d\u0435\u0433\u043e, \u043a\u0430\u043a \u0441 \u0433\u0443\u0441\u044f \u0432\u043e\u0434\u0430. \u0421\u0442\u0440\u0430\u043d\u043d\u043e \u043a\u0430\u043a \u0442\u043e.
p297
I-1
tp298
a(V\u0421 \u043d\u0430\u0447\u0430\u043b\u0430 \u0441\u0432\u043e\u0435\u0433\u043e \u043f\u0440\u0438\u0445\u043e\u0434\u0430 \u0432\u043e \u0432\u043b\u0430\u0441\u0442\u044c, \u043f\u0443\u0442\u0438\u043d \u043d\u0430 \u0441\u043b\u043e\u0432\u0430\u0445 \u043f\u043e\u0434\u0434\u0435\u0440\u0436\u0438\u0432\u0430\u043b, \u0430 \u043d\u0430 \u0434\u0435\u043b\u0435 \u0433\u043d\u043e\u0431\u0438\u043b \u043c\u0435\u0441\u0442\u043d\u043e\u0435 \u0441\u0430\u043c\u043e\u0443\u043f\u0440\u0430\u0432\u043b\u0435\u043d\u0438\u0435. \u0414\u043b\u044f \u043d\u0435\u0433\u043e \u044d\u0442\u043e \u043b\u043e\u0433\u0438\u0447\u043d\u043e\u0435 \u0437\u0430\u0432\u0435\u0440\u0448\u0435\u043d\u0438\u0435 \u0441\u0442\u0440\u043e\u0438\u0442\u0435\u043b\u044c\u0441\u0442\u0432\u0430 \u0432\u0435\u0440\u0442\u0438\u043a\u0430\u043b\u0438. \u041f\u0443\u0442\u0438\u043d \u0432\u0437\u044f\u043b \u0441\u0442\u0440\u0430\u043d\u0443 \u0438 \u043a\u0430\u043a \u043f\u0440\u0443\u0436\u0438\u043d\u043a\u0443 \u0441\u0436\u0430\u043b \u0432 \u043a\u0443\u043b\u0430\u043a\u0435, \u0432\u0435\u0441\u044c \u0442\u0430\u043a\u043e\u0439 \u0434\u043e\u0432\u043e\u043b\u044c\u043d\u044b\u0439, \u0433\u043e\u0432\u043e\u0440\u0438\u0442 \u0447\u0442\u043e \u043f\u0440\u0435\u0434\u043e\u0442\u0432\u0440\u0430\u0442\u0438\u043b \u0440\u0430\u0441\u043f\u0430\u0434 \u0441\u0442\u0440\u0430\u043d\u044b\u2026 \u041d\u043e \u0440\u0443\u043a\u0430 \u0437\u0430\u0442\u0435\u043a\u0435\u0435\u0442, \u0433\u043e\u0434\u044b \u0431\u0435\u0440\u0443\u0442 \u0441\u0432\u043e\u0435, \u0445\u043e\u0447\u0435\u0442\u0441\u044f \u043f\u0435\u0440\u0435\u043b\u043e\u0436\u0438\u0442\u044c \u043f\u0440\u0443\u0436\u0438\u043d\u043a\u0443 \u0432 \u0434\u0440\u0443\u0433\u0443\u044e \u0440\u0443\u043a\u0443, \u0432\u043e\u0442 \u0442\u0443\u0442 \u043f\u0440\u0443\u0436\u0438\u043d\u043a\u0430 \u0438 \u043c\u043e\u0436\u0435\u0442 \u0432\u044b\u0441\u043a\u043e\u0447\u0438\u0442\u044c \u0438\u0437 \u0435\u0433\u043e \u0437\u0430\u0434\u0435\u0440\u0435\u0432\u0435\u043d\u0435\u043b\u043e\u0439 \u0440\u0443\u043a\u0438!
p299
I-1
tp300
a(V\u041b\u043e\u043b,\u041f\u0440\u0438\u043e\u0440\u0430 \u043d\u0435 \u0432\u0430\u0437,\u0430 \u0442\u0430\u0437))
p301
I0
tp302
a(V\u041c\u0435\u0442\u0440\u043e \u043a\u0430\u043a \u043c\u043d\u043e\u0433\u043e\u0432 \u044d\u0442\u043e\u043c \u0441\u043b\u043e\u0432\u0435 \u0434\u043b\u044f \u0441\u0435\u0440\u0434\u0446\u0430 \u043e\u043c\u0438\u0447\u0430 \u0434\u0430\u043d\u043e. \u0412\u043e\u043d \u0443 \u044f\u043f\u043e\u043d\u0446\u0435\u0432 \u043f\u043e \u044d\u0441\u0442\u0430\u043a\u0430\u0434\u0430\u043c \u0431\u0435\u0433\u0430\u0435\u0442 \u0438 \u043d\u0438\u0447\u0435\u0433\u043e \u043f\u043e\u0447\u0435\u043c\u0443 \u0443 \u043d\u0430\u0441 \u043d\u0435 \u043c\u043e\u0433\u043b\u0438 \u043f\u0440\u043e\u0440\u0430\u0431\u043e\u0442\u0430\u0442\u044c \u0442\u0430\u043a\u0443\u044e \u0432\u0435\u0440\u0441\u0438\u044e \u0438\u043b\u0438 \u0442\u0438\u043f\u0430 \u0440\u043e\u0431\u0438\u043c \u043f\u043e \u0441\u0442\u0430\u043d\u0434\u0430\u0440\u0442\u043d\u043e\u0439 \u0441\u0445\u0435\u043c\u0435 \u043c\u0435\u0442\u0440\u043e \u0434\u043e\u043b\u0436\u043d\u043e \u0431\u044b\u0442\u044c \u043f\u043e\u0434 \u0437\u0435\u043c\u043b\u0451\u0439 \u0438 \u0438\u043c\u0435\u0442\u044c \u0432\u0442\u043e\u0440\u043e\u0435 \u043f\u0440\u0435\u0434\u043d\u0430\u0437\u043d\u0430\u0447\u0435\u043d\u0438\u0435. \u0410 \u043a\u0430\u043a \u0441\u043a\u0430\u0437\u0430\u043b mor4ey \u043f\u0435\u0448\u0435\u0445\u043e\u0434\u043d\u044b\u0435 \u043f\u0435\u0440\u0435\u0445\u043e\u0434\u044b \u043d\u0443\u0436\u043d\u043e \u043f\u043e \u0432\u043e\u0437\u043c\u043e\u0436\u043d\u043e\u0441\u0442\u0438 \u0443\u0431\u0438\u0440\u0430\u0442\u044c \u043f\u043e\u0434 \u0437\u0435\u043c\u043b\u044e \u0430 \u0442\u043e \u043a\u043b\u0435\u043f\u0430\u044e\u0442 \u0433\u0434\u0435 \u043d\u0435 \u043f\u043e\u043f\u0430\u0434\u044f \u0442\u043e\u043b\u044c\u043a\u043e \u0434\u043b\u044f \u043e\u0442\u043c\u0430\u0437\u043a\u0438.
p303
I-1
tp304
a(VAlisssa, \u043f\u0440\u043e\u0441\u0438\u0442\u044c \u043d\u0430\u0434\u043e \u043b\u0438\u0431\u043e \u0411\u0430\u0440\u0430\u043a\u0430 \u041e\u0431\u0430\u043c\u0443, \u043b\u0438\u0431\u043e \u0413\u043e\u0441\u043f\u043e\u0434\u0430 \u0411\u043e\u0433\u0430. \u041a\u0442\u043e \u0438\u0437 \u043d\u0438\u0445 \u043a \u0412\u0430\u043c \u0431\u043b\u0438\u0436\u0435, \u0442\u043e\u0433\u043e \u0438 \u043f\u0440\u043e\u0441\u0438\u0442\u0435. \u041e\u0442 \u043e\u0441\u0442\u0430\u043b\u044c\u043d\u044b\u0445 \u0442\u043e\u043b\u043a\u0443 \u043d\u0435\u0442.
p305
I0
tp306
a(V\u0445\u043c..., \u0445\u043c..., \u044f \u0441\u043e\u0433\u043b\u0430\u0441\u043d\u0430. \u041f\u043e\u043a\u0430 \u0432\u043c\u0435\u0441\u0442\u0435 \u0441 \u043c\u0443\u0436\u0435\u043c \u0440\u0430\u0431\u043e\u0442\u0430\u0435\u043c, \u043f\u043b\u0430\u0442\u0438\u0442\u044c \u043c\u043e\u0436\u043d\u043e \u0438\u043f\u043e\u0442\u0435\u043a\u0443. \u041c\u043d\u0435 31 \u043f\u043e\u0440\u0430 \u0432 \u0434\u0435\u043a\u0440\u0435\u0442....\u041c\u0443\u0436\u0443 \u043d\u0430\u0434\u043e \u0431\u0443\u0434\u0435\u0442 \u043d\u0430\u0441 \u0442\u0440\u043e\u0438\u0445 \u043a\u043e\u0440\u043c\u0438\u0442\u044c + \u0438\u043f\u043e\u0442\u0435\u043a\u0430+\u043a\u043e\u043c\u043c\u0443\u043d\u0430\u043b\u043a\u0430 (\u043a\u043e\u0442\u043e\u0440\u0430\u044f \u043e\u043f\u044f\u0442\u044c \u043f\u043e\u0432\u044b\u0441\u0438\u043b\u0430\u0441\u044c \u0441 \u044f\u043d\u0432\u0430\u0440\u044f 2014)
p307
I0
tp308
a(V\u0410, \u043f\u043e\u0437\u0432\u043e\u043b\u044c\u0442\u0435 \u0441\u043f\u0440\u043e\u0441\u0438\u0442\u044c, \u0433\u0434\u0435 \u043d\u0430\u0445\u043e\u0434\u044f\u0442\u0441\u044f \u043d\u0430\u0448\u0438 \u0434\u043e\u0431\u043b\u0435\u0441\u043d\u044b\u0435 \u0441\u043e\u0442\u0440\u0443\u0434\u043d\u0438\u043a\u0438 \u0413\u0418\u0411\u0414\u0414? \u041f\u043e\u0447\u0435\u043c\u0443 \u043d\u043e \u043e\u043c\u0441\u043a\u0438\u043c \u0434\u043e\u0440\u043e\u0433\u0430\u043c \u0435\u0437\u0434\u044f\u0442 \u0437\u0430\u0442\u043e\u043d\u0438\u0440\u043e\u0432\u0430\u043d\u043d\u044b\u0435 \u0430\u0432\u0442\u043e\u043c\u043e\u0431\u0438\u043b\u0438, \u0431\u0435\u0437 \u043d\u043e\u043c\u0435\u0440\u043d\u044b\u0445 \u0437\u043d\u0430\u043a\u043e\u0432, \u0441 \u0432\u0440\u0435\u043c\u0435\u043d\u043d\u044b\u043c\u0438, \u0432\u044b\u0446\u0432\u0435\u0442\u0448\u0438\u043c\u0438 \u043d\u043e\u043c\u0435\u0440\u0430\u043c\u0438, \u043c\u043e\u0442\u043e\u0446\u0438\u043a\u043b\u0438\u0441\u0442\u044b \u0434\u043d\u0435\u043c \u0438 \u043d\u043e\u0447\u044c\u0451 \u043d\u0430 \u043c\u043e\u0442\u043e\u0446\u0438\u043a\u043b\u0430\u0445 \u0431\u0435\u0437 \u043d\u043e\u043c\u0435\u0440\u043d\u044b\u0445 \u0437\u043d\u0430\u043a\u043e\u0432? \u0420\u0430\u0437\u0432\u0435 \u0432\u044b \u044d\u0442\u043e\u0433\u043e \u043d\u0435 \u0432\u0438\u0434\u0438\u0442\u0435? \u0414\u0430\u0432\u043d\u043e \u0443\u0436\u0435 \u043f\u043e\u0440\u0430 \u043d\u0430\u0432\u0435\u0441\u0442\u0438 \u043f\u043e\u0440\u044f\u0434\u043e\u043a \u043d\u0430 \u0434\u043e\u0440\u043e\u0433\u0430\u0445, \u0445\u043e\u0442\u044c \u0432\u0430\u0441 \u0438 \u043e\u0441\u0442\u0430\u043b\u043e\u0441\u044c \u043c\u0430\u043b\u043e, \u0443\u0432\u0430\u0436\u0430\u0435\u043c\u044b\u0435 \u0441\u043e\u0442\u0440\u0443\u0434\u043d\u0438\u043a\u0438 \u0413\u0418\u0411\u0414\u0414! \u0418\u043d\u0430\u0447\u0435, \u0447\u0442\u043e \u043d\u0435 \u043d\u043e\u0432\u043e\u0441\u0442\u044c, \u0442\u043e, \u043e\u0431\u044f\u0437\u0430\u0442\u0435\u043b\u044c\u043d\u043e \u043d\u0430 \u0434\u043e\u0440\u043e\u0433\u0430\u0445!
p309
I-1
tp310
a(V\u041a\u043e\u043d\u043a\u0443\u0440\u0441 \u043f\u043e\u043a\u0430\u0436\u0435\u0442, \u0441\u043a\u043e\u043b\u044c\u043a\u043e \u0431\u043e\u043b\u0432\u0430\u043d\u0447\u0438\u043a\u043e\u0432 \u0432 \u041e\u043c\u0441\u043a\u0435, \u043a\u043e\u0442\u043e\u0440\u044b\u0435 \u043f\u043e\u0431\u0435\u0433\u0443\u0442 \u0444\u043e\u0442\u0430\u0442\u044c \u0441\u0443\u0433\u0440\u043e\u0431\u044b \u0430\u0436 \u0437\u0430 \u043b\u043e\u043f\u0430\u0442\u0443 \u0441 \u0440\u043e\u0441\u043f\u0438\u0441\u044f\u043c\u0438 \u0440\u0430\u0431\u043e\u0442\u043d\u0438\u043a\u043e\u0432 \u041e\u043c\u0441\u043a\u0418\u043d\u0444\u043e\u0440\u043c\u0430. \u0426\u0435\u043d\u043d\u043e\u0441\u0442\u044c \u0432\u0435\u043b\u0438\u043a\u0430\u044f, \u043f\u043e\u0442\u043e\u043c \u0431\u0443\u0434\u0443\u0442 \u043a\u043e\u043b\u043b\u0435\u043a\u0446\u0438\u043e\u043d\u0435\u0440\u0430\u043c \u0437\u0430 \u0434\u0435\u0441\u044f\u0442\u043a\u0438 \u0442\u044b\u0441\u044f\u0447 \u0434\u043e\u043b\u043b\u0430\u0440\u043e\u0432 \u043f\u0440\u043e\u0434\u0430\u0432\u0430\u0442\u044c.
p311
I-1
tp312
a(V\u0420\u0430\u0431\u043e\u0442\u044f\u0433\u0430, \u044f \u0437\u0430 14 \u0442\u044b\u0441\u044f\u0447 \u0442\u043e\u043a \u043e\u0434\u043d\u0443 \u043a\u0432\u0430\u0440\u0442\u0438\u0440\u0443 \u0432 \u0430\u0440\u0435\u043d\u0434\u0443 \u0441\u0434\u0430\u044e))
p313
I1
tp314
a(V))))))))\u041c\u044d\u0440 \u0422\u043e\u0440\u043e\u043d\u0442\u043e \u043a\u0443\u0440\u044f\u0449\u0438\u0439 \u043a\u0440\u044d\u043a \u0445\u043e\u0440\u043e\u0448\u0438\u0439 \u0443\u043f\u0440\u0430\u0432\u043b\u0435\u043d\u0435\u0446.\u041d\u0430 \u043f\u043e\u0441\u043b\u0435\u0434\u043d\u0435\u043c \u0432\u0438\u0434\u0435\u043e...
p315
I1
tp316
a(V\u041e\u0442\u0431\u043e\u0440\u043d\u044b\u0439 \u0431\u0440\u0435\u0434. \u041d\u0438\u043a\u043e\u0433\u043e \u043d\u0435 \u0434\u043e\u043b\u0436\u043d\u043e \u0432\u043e\u043b\u043d\u043e\u0432\u0430\u0442\u044c, \u043a\u0430\u043a \u043b\u044e\u0434\u0438 \u0437\u0430\u0440\u0430\u0431\u0430\u0442\u044b\u0432\u0430\u044e\u0442 \u0434\u0435\u043d\u044c\u0433\u0438.
p317
I-1
tp318
a(V\u041f\u043e\u0440\u0442\u044f\u043d\u043a\u0430 \u0432\u0441\u0435 \u043f\u0440\u043e\u043a\u043e\u043d\u0442\u0440\u043e\u043b\u0438\u0440\u0443\u0435\u0442, \u0431\u043e\u043b\u044c\u0448\u0435 \u0442\u043e \u0438 \u043d\u0435 \u043a\u043e\u043c\u0443 \u0437\u0430\u043a\u043e\u043d\u044b \u0438\u0441\u043f\u043e\u043b\u043d\u044f\u0442\u044c, \u0432\u0441\u0435 \u0432\u0435\u0434\u043e\u043c\u0441\u0442\u0432\u0430 \u0441\u043a\u0443\u0440\u0432\u0438\u043b\u0438\u0441\u044c. \u0414\u0430\u0432\u0430\u0439 \u043f\u043e\u0440\u0442\u044f\u043d\u043a\u0430 \u0434\u0435\u0440\u0437\u0430\u0439, \u043f\u0440\u043e\u0436\u0438\u0432\u0435\u0448\u044c \u043d\u0435 \u0434\u043e\u043b\u0433\u043e, \u043d\u043e \u0437\u0430\u043f\u043e\u043c\u043d\u044f\u0442 \u0442\u0435\u0431\u044f \u0433\u0435\u0440\u043e\u0435\u043c..
p319
I-1
tp320
a(V\u0427\u0442\u043e, \u0431\u044b\u0434\u043b\u043e, \u0431\u0430\u0442\u0445\u0435\u0440\u0442?
p321
I-1
tp322
a(V\u0411\u041a \u0442\u0430\u043a\u043e\u0439 \u0411\u041a. \u041d\u043e\u0440\u043c\u0430\u043b\u044c\u043d\u044b\u0439 \u0436\u0443\u0440\u043d\u0430\u043b\u0438\u0441\u0442 \u043e\u0431\u044f\u0437\u0430\u0442\u0435\u043b\u044c\u043d\u043e \u0431\u044b \u0443\u0437\u043d\u0430\u043b, \u043a\u0442\u043e \u0437\u0430\u0441\u0442\u0440\u043e\u0439\u0449\u0438\u043a. \u0421\u0435\u0440\u0433\u0435\u0439 \u0421\u0435\u0440\u0433\u0435\u0435\u0432\u0438\u0447, \u0443\u0432\u043e\u043b\u044c\u0442\u0435 \u0413\u043e\u0448\u043a\u043e\u0434\u0435\u0440\u0430.
p323
I-1
tp324
a(V"\u042f \u043a \u041a\u0430\u043b\u0433\u0430\u043d\u043e\u0432\u0443 \u0445\u043e\u0434\u0438\u043b \u0438 \u043e\u043d \u043e\u0442\u0441\u0442\u0430\u043b", "\u041c\u044b \u0437\u0430\u0431\u0440\u0430\u043b\u0438 \u0443 \u0434\u043e\u043b\u0436\u043d\u0438\u043a\u043e\u0432 \u0434\u0440\u0430\u0433\u043e\u0446\u0435\u043d\u043d\u043e\u0441\u0442\u0438 \u043d\u0430 \u0432\u044b\u0441\u0442\u0430\u0432\u043a\u0435", "\u042f \u0432\u043e\u0437\u0432\u0440\u0430\u0449\u0430\u043b \u0434\u043e\u043b\u0433\u0438, \u043a\u043e\u0442\u043e\u0440\u044b\u0435 \u0441\u0443\u0434 \u043d\u0435 \u0432 \u0441\u0438\u043b\u0430\u0445 \u0431\u044b\u043b \u0432\u0435\u0440\u043d\u0443\u0442\u044c". \u041a\u0430\u0432\u043a\u0430\u0437\u0441\u043a\u0438\u0435 \u043f\u043e\u043d\u0442\u044b.
p325
I-1
tp326
a(V\u041d\u0430\u0434\u043e \u0436\u0435, \u0430 \u044f \u0434\u0443\u043c\u0430\u043b\u0430, \u0447\u0442\u043e \u043e\u043d \u0442\u0435\u043b\u0435\u0437\u0432\u0435\u0437\u0434\u0430\u2026\u0412\u043e\u0442 \u043a\u0443\u0440\u0438\u0446\u044b, \u043c\u043e\u0433\u043b\u0438 \u0440\u0435\u0430\u043b\u044c\u043d\u043e \u043f\u043e\u043b\u0443\u0447\u0438\u0442\u044c 3 \u043e\u0447\u043a\u0430, \u0431\u043b\u0430\u0433\u043e, \u0447\u0442\u043e \u0445\u043e\u0442\u044c \u0432 \u043b\u043e\u0442\u0435\u0440\u0435\u044e 2 \u0432\u044b\u0442\u044f\u043d\u0443\u043b\u0438.\u041f\u043e\u043a\u0430 \u0447\u0442\u043e \u043c\u043e\u043d\u043e \u0441\u043a\u0430\u0437\u0430\u0442\u044c: \u0440\u0430\u043d\u044c\u0448\u0435 \u0445\u043e\u0442\u044c \u0438\u0433\u0440\u0430\u043b\u0438 \u043f\u0435\u0440\u0432\u044b\u0439-\u0442\u0440\u0435\u0442\u0438\u0439 \u043f\u0435\u0440\u0438\u043e\u0434, \u0449\u0430\u0441 \u0442\u043e\u043a\u043e \u043f\u0435\u0440\u0432\u044b\u0439.\u0412 \u043a\u043e\u043c\u0430\u043d\u0434\u0435 \u0442\u044f\u043d\u0443\u0442 \u043f\u043e\u043a\u0430 \u0434\u0432\u0430 \u0421\u0430\u0448\u043a\u0430 \u2014 \u041f\u043e\u043f\u043e\u0432 \u0438 \u041f\u0435\u0440\u0435\u0436\u043e\u0433\u0438\u043d, \u041a\u043e\u0441\u0442\u0438\u0446\u044b\u043d \u0432\u0441\u0435 \u0434\u044b\u0440\u044b \u0432 \u0437\u0432\u0435\u043d\u044c\u044f\u0445 \u0437\u0430\u0442\u044b\u043a\u0430\u0435\u0442, \u043d\u0443 \u0438 \u043f\u043e\u0436\u0430\u043b\u0443\u0439 \u043f\u043b\u044e\u0441 \u041a\u0432\u0430\u0448\u0435 \u0437\u0430 \u0441\u0442\u043e\u043f\u0440\u043e\u0446\u0435\u043d\u0442\u043d\u043e \u0432\u044b\u0438\u0433\u0440\u0430\u043d\u043d\u044b\u0435 \u0432\u0431\u0440\u0430\u0441\u044b\u0432\u0430\u043d\u0438\u044f.\u0411\u043e\u043b\u044c\u0448\u0435-\u0442\u043e \u043d\u0438 \u043e \u043a\u043e\u043c \u0438 \u0441\u043b\u043e\u0432\u0430 \u0434\u043e\u0431\u0440\u043e\u0433\u043e \u043d\u0435\u043b\u044c\u0437\u044f \u0441\u043a\u0430\u0437\u0430\u0442\u044c, \u043e\u0441\u043e\u0431\u0435\u043d\u043d\u043e \u043e \u0432\u043e\u0440\u043e\u0442\u0447\u0438\u043a\u0435.\u041d\u0443\u0436\u043d\u043e \u0441\u0440\u043e\u0447\u043d\u043e \u0438\u0441\u043a\u0430\u0442\u044c \u0437\u0430\u043c\u0435\u043d\u0443, \u0443 \u043d\u0435\u0433\u043e \u044f\u0432\u043d\u0430\u044f \u0431\u043e\u043b\u0435\u0437\u043d\u044c \u043f\u0440\u043e\u043c\u0435\u0436\u043d\u043e\u0441\u0442\u044c, \u044d\u0442\u043e \u043d\u0435 \u043b\u0435\u0447\u0438\u0442\u0441\u044f, \u0435\u0441\u043b\u0438 \u0442\u043e\u043a\u043e \u0441\u0435\u0442\u043a\u0443 \u0442\u0430\u043c \u043d\u0435 \u043d\u0430\u0442\u044f\u043d\u0435\u0442.\u0421\u0442\u0440\u0430\u043d\u043d\u043e-\u0442\u0443\u0445\u043b\u044b\u0435 \u041a\u0430\u043b\u0438\u043d\u0430 \u0441 \u041f\u0438\u0432\u0446\u0430\u043a\u0438\u043d\u044b\u043c, \u043d\u0435 \u0443\u0437\u043d\u0430\u0442\u044c, \u041f\u0435\u0442\u044f \u0438\u0445 \u044f\u0432\u043d\u043e \u0447\u0435\u043c\u0443-\u0442\u043e \u043f\u043b\u043e\u0445\u043e\u043c\u0443 \u0443\u0447\u0438\u0442, \u043a\u0430\u043a \u0432\u043f\u0440\u043e\u0447\u0435\u043c \u0438 \u0432\u0441\u044e \u043a\u043e\u043c\u0430\u043d\u0434\u0443.\u041c\u0435\u0440\u0437\u043a\u0438\u0439 \u0424\u0435\u0434\u043e\u0440\u043e\u0432 \u0432\u0447\u0435\u0440\u0430 \u0440\u0430\u0434\u043e\u0441\u0442\u043d\u043e \u0432\u0435\u0440\u0435\u0449\u0430\u043b, \u043a\u043e\u0433\u0434\u0430 \u043c\u0435\u043d\u0442\u044b \u0434\u043e\u0431\u0438\u0432\u0430\u043b\u0438 \u0421\u0430\u043b\u043e, \u0442\u0438\u043f\u0430 \u043a\u043e\u043d\u0447\u0438\u043b\u0438\u0441\u044c \u043e\u043b\u0438\u0433\u0430\u0440\u0445\u0438 \u043d\u0430 \u0412\u043e\u0441\u0442\u043e\u043a\u0435, \u043a\u0438\u0440\u0434\u044b\u043a \u0438\u043c \u0432\u0441\u0435\u043c, \u0442\u0430\u043f\u0435\u0440\u0438\u0447\u0430 \u0432\u0441\u0435 \u0432 \u041c\u043e\u0441\u043a\u0430\u043b\u044c\u0441\u043a\u0435 \u0438 \u041f\u0438\u0442\u0435\u0440\u0435 \u2014 \u0434\u0435\u043d\u044c\u0433\u0438, \u0445\u043e\u043a\u043a\u0435\u0439, \u043a\u0443\u0431\u043a\u0438, \u0430 \u0412\u043e\u0441\u0442\u043e\u043a \u043e\u043f\u044f\u0442\u044c \u0432\u0435\u0440\u043d\u0443\u043b\u0441\u044f \u0432 \u043f\u0440\u043e\u0432\u0438\u043d\u0446\u0438\u0430\u043b\u044c\u043d\u043e\u0435 \u0441\u043e\u0441\u0442\u043e\u044f\u043d\u0438\u0435 \u0441 \u0442\u0430\u043a\u043e\u0439 \u0436\u0435 \u0438\u0433\u0440\u043e\u0439, \u0438\u0433\u0440\u043e\u043a\u0430\u043c\u0438 \u0438 \u0445\u043e\u043a\u043a\u0435\u0435\u043c.\u0418 \u0447\u0443\u0432\u0441\u0442\u0432\u0443\u0435\u0442\u0441\u044f \u0432 \u0435\u0433\u043e \u0433\u0443\u043d\u044f\u0432\u043e\u043c \u0432\u0435\u0440\u0435\u0441\u043a\u0435 \u043a\u0430\u043a\u0430\u044f-\u0442\u043e \u0441\u0435\u0440\u043c\u044f\u0436\u043d\u0430\u044f \u043f\u0440\u0430\u0432\u0434\u0430.\u0420\u0430\u0437\u0432\u0430\u043b\u0438\u0432\u0430\u0435\u0442\u0441\u044f \u0432\u0441\u0435 \u0443 \u043d\u0430\u0441, \u043c\u0435\u0442\u043e\u0434\u0438\u0447\u043d\u043e \u0438 \u043f\u043b\u0430\u043d\u043e\u043c\u0435\u0440\u043d\u043e, \u0447\u0442\u043e\u0431\u044b, \u043a\u0430\u043a \u0432 \u0441\u043e\u0432\u0435\u0442\u0441\u043a\u0438\u0435 \u0432\u0440\u0435\u043c\u0435\u043d\u0430, \u043c\u044b \u0441\u0442\u0430\u043b\u0438 \u043f\u043e\u0441\u0442\u0430\u0432\u0449\u0438\u043a\u043e\u043c \u0438 \u0441\u044b\u0440\u044c\u0435\u0432\u044b\u043c \u043f\u0440\u0438\u0434\u0430\u0442\u043a\u043e\u043c \u0434\u0430\u0436\u0435 \u0432 \u044d\u0442\u043e\u043c.\u041f\u0435\u0447\u0430\u043b\u044c\u043a\u0430.
p327
I-1
tp328
a(V\u0422\u0430\u043a, \u0430 \u0443 \u043d\u0430\u0441 \u043d\u0430 \u043b\u0435\u0432\u0430\u0448\u0435 \u043f\u043e\u0441\u0442\u043e\u044f\u043d\u043d\u043e \u0434\u0435\u0440\u044c\u043c\u043e\u043c \u0432\u043e\u043d\u044f\u0435\u0442 \u2014 \u0438 \u043d\u0438\u043a\u0442\u043e \u0440\u0430\u0437\u043e\u0431\u0440\u0430\u0442\u044c\u0441\u044f \u043d\u0435 \u043c\u043e\u0436\u0435\u0442 \u2014 \u0432 \u0447\u0451\u043c \u0436\u0435 \u043f\u0440\u0438\u0447\u0438\u043d\u0430? \u043a\u043b\u043e\u0443\u043d\u044b, \u043e\u0434\u043d\u043e \u0441\u043b\u043e\u0432\u043e. \u043a\u043e\u0433\u0434\u0430 \u0434\u0435\u0440\u044c\u043c\u043e \u0441\u0432\u0438\u043d\u043e\u0435 \u0438\u0437 \u043b\u0443\u0437\u0438\u043d\u0441\u043a\u0438\u0445 \u043e\u0447\u0438\u0441\u0442\u043d\u044b\u0445 \u043d\u0430\u0447\u0438\u043d\u0430\u044e\u0442 \u043d\u0430 \u043f\u043e\u043b\u044f \u0432\u044b\u0432\u043e\u0437\u0438\u0442\u044c \u2014 \u0432\u043e\u0442 \u0438 \u0432\u0435\u0441\u044c \u043f\u0440\u0438\u043a\u043e\u043b.
p329
I-1
tp330
a(V\u0412\u0430\u043b\u0435\u0440\u0438\u043a)))\u0422\u044b \u043d\u0435 \u043f\u043e\u0432\u0435\u0440\u0438\u0448\u044c))) \u041d\u043e \u0425\u043e\u0434\u043e\u0440 \u043a\u0430\u043a \u0440\u0430\u0437 \u0438 \u0431\u043e\u043b\u044c\u043d\u0438\u0446\u044b \u043e\u0442\u043a\u0440\u044b\u0432\u0430\u043b)) \u0418 \u0434\u0435\u0442\u0441\u043a\u0438\u0435 \u0434\u043e\u043c\u0430 \u0444\u0438\u043d\u0430\u043d\u0441\u043e\u0432\u043e \u043f\u043e\u0434\u0434\u0435\u0440\u0436\u0438\u0432\u0430\u043b))) \u041e\u0440\u0433\u0430\u043d\u0438\u0437\u043e\u0432\u0430\u043b \u0431\u0435\u0441\u043f\u043b\u0430\u0442\u043d\u044b\u0435 \u044e\u0440.\u043a\u043e\u043d\u0441\u0443\u043b\u044c\u0442\u0430\u0446\u0438\u0438 \u0434\u043b\u044f \u043f\u0440\u043e\u0441\u0442\u044b\u0445 \u0441\u043c\u0435\u0440\u0442\u043d\u044b\u0445)) \u041d\u0435\u0438\u043c\u0443\u0449\u0438\u043c \u0440\u0430\u0437\u0434\u0430\u0432\u0430\u043b \u043b\u0435\u043a\u0430\u0440\u0441\u0442\u0432\u0430)) \u0410 \u0435\u0449\u0435 \u0438\u043d\u0442\u0435\u0440\u043d\u0435\u0442 \u0432 \u0448\u043a\u043e\u043b\u044b \u0431\u0435\u0441\u043f\u043b\u0430\u0442\u043d\u043e \u043f\u0440\u043e\u0432\u043e\u0434\u0438\u043b \u0438 \u043a\u043e\u043c\u043f\u044c\u044e\u0442\u0435\u0440\u043d\u044b\u0435 \u043a\u043b\u0430\u0441\u0441\u044b \u0434\u0430\u0440\u0438\u043b)) \u041d\u0443 \u0438 \u043c\u043d\u043e\u0433\u043e \u0447\u0435\u0433\u043e \u0435\u0449\u0435 \u0434\u0435\u043b\u0430\u043b))
p331
I1
tp332
a(V\u0434\u0430 \u043a\u043e\u043c\u0443 \u0442\u044b \u043e\u0431\u044a\u044f\u0441\u043d\u044f\u0435\u0448\u044c- \u0442\u0430\u043c \u043c\u043e\u0437\u0433\u043e\u0432 \u043d\u0438\u043a\u043e\u0433\u0434\u0430 \u043d\u0435\u0431\u044b\u043b\u043e!
p333
I-1
tp334
a(V\u041e\u0434\u0438\u043d \u0440\u0430\u0437 \u0437\u0430\u0435\u0437\u0436\u0430\u043b \u0432 \u044d\u0442\u043e\u0442 \u044e\u0440\u0438\u0438, \u043f\u043e\u0441\u043c\u043e\u0442\u0440\u0435\u043b \u043f\u0440\u0430\u0439\u0441 \u0438 \u0443\u0435\u0445\u0430\u043b, \u0446\u0435\u043d\u043d\u0438\u043a \u0442\u0430\u043c \u043f\u0440\u043e\u0441\u0442\u043e \u043a\u043e\u043d\u0441\u043a\u0438\u0439, \u0432 \u0440\u0430\u0437\u044b \u0432\u044b\u0448\u0435 \u0447\u0435\u043c \u0432 \u0446\u0435\u043b\u043e\u043c \u043f\u043e \u0433\u043e\u0440\u043e\u0434\u0443, \u0434\u0430 \u0438 \u043f\u043e \u043e\u0442\u0437\u044b\u0432\u0430\u043c \u043a\u0430\u0447\u0435\u0441\u0442\u0432\u043e \u0432\u044b\u043f\u043e\u043b\u043d\u0435\u043d\u043d\u044b\u0445 \u0440\u0430\u0431\u043e\u0442 \u043e\u0441\u0442\u0430\u0432\u043b\u044f\u0435\u0442 \u0436\u0435\u043b\u0430\u0442\u044c \u043b\u0443\u0447\u0448\u0435\u0433\u043e.
p335
I-1
tp336
a(V\u0413\u0434\u0435 \u043a\u043e\u043c\u0438\u0442\u0435\u0442 \u043f\u043e \u044d\u0442\u0438\u043a\u0435?
p337
I0
tp338
a(V\u041d\u0443 \u0448\u0430\u043d\u0441 \u0442\u043e \u0443 \u0410\u0432\u044b \u0435\u0441\u0442\u044c.\u041f\u043e\u0441\u043b\u0435 \u0432\u0447\u0435\u0440\u0430\u0448\u043d\u0438\u0445 \u043f\u043e\u0440\u0430\u0436\u0435\u043d\u0438\u0439 \u0410\u0434\u043c.,\u0438 \u0422\u0440\u0430\u043a\u0442\u043e\u0440\u0430.
p339
I1
tp340
a(V\u043e\u0445 \u043a\u0430\u043a\u043e
p341
I0
tp342
a(V\u0410\u043d\u043e\u043d\u0438\u043c\u043d\u043e, \u0430\u043c\u043e\u0440\u0430\u043b\u044c\u043d\u043e, \u0430\u043d\u043e\u043c\u0430\u043b\u044c\u043d\u043e, \u0430\u043d\u0430\u043b\u044c\u043d\u043e.
p343
I-1
tp344
a(V\u0412\u043e\u0442 \u0447\u0442\u043e \u0437\u043d\u0430\u0447\u0438\u0442 \u0441\u0438\u043b\u0430 \u0432\u043e\u043b\u0438! \u0410 \u0432\u044b \u0441\u0438\u0434\u0438\u0442\u0435 \u0438 \u0434\u0430\u043b\u044c\u0448\u0435 \u043f\u0438\u0448\u0438\u0442\u0435 \u0441\u0432\u043e\u0438 \u0433\u043b\u0443\u043f\u044b\u0435 \u0437\u0430\u043c\u0435\u0447\u0430\u043d\u0438\u044f, \u043f\u043e\u0447\u0435\u0441\u044b\u0432\u0430\u044f \u0441\u0430\u043b\u044c\u043d\u043e\u0435 \u0431\u0440\u044e\u0448\u043a\u043e!
p345
I0
tp346
a(V\u041d\u0443 \u044d\u0442\u043e \u043c\u043e\u0436\u0435\u0442 \u0438 \u0438\u0437\u043c\u0435\u043d\u0438\u0442\u044c\u0441\u044f. \u0412\u043e\u0442 \u042e\u0440\u043a\u0430 \u0413\u0430\u043c\u0431\u0443\u0440\u0433 \u0442\u043e\u0436\u0435 \u043d\u0435 \u0434\u0443\u043c\u0430\u043b \u043d\u0435 \u0433\u0430\u0434\u0430\u043b \u0447\u0442\u043e \u0436\u0438\u0437\u043d\u044c \u043c\u043e\u0436\u0435\u0442 \u0442\u0430\u043a \u043f\u043e\u0432\u0435\u0440\u043d\u0443\u0442\u044c\u0441\u044f.
p347
I0
tp348
a(V\u0421\u0432\u0435\u0442\u043a\u0430! \u0423\u043c\u0438\u0440\u043e\u0442\u0432\u043e\u0440\u0438\u0441\u044c.. \u0418\u0434\u0438 \u0437\u0430\u044e\u0442\u0443\u0431\u0430\u0439: Paul Simon \u2014 GRACELAND
p349
I0
tp350
a(V\u0412 \u0422\u044e\u043a\u0430\u043b\u0435 \u0432\u0430\u0442\u0443 \u043d\u0435 \u043a\u0430\u0442\u0430\u044e\u0442!
p351
I1
tp352
a(V\u0418\u0433\u043e\u0440\u044c 10, \u0435\u0441\u043b\u0438 \u0432 \u0440\u0430\u0439\u043e\u043d\u043d\u044b\u0445 \u0430\u0434\u043c\u0438\u043d\u0438\u0441\u0442\u0440\u0430\u0446\u0438\u044f\u0445 \u043d\u0435\u0442 \u0418\u043d\u0435\u0442\u0430 \u0438 \u0441\u043a\u0430\u0439\u043f\u0430, \u0442\u043e \u044d\u0442\u043e \u0442\u0430\u043a\u043e\u0439 \u0436\u0435 \u043f\u043e\u0437\u043e\u0440 \u0434\u043b\u044f \u043e\u043c\u0441\u043a\u043e\u0433\u043e \u0440\u0435\u0433\u0438\u043e\u043d\u0430, \u043a\u0430\u043a \u0438 \u0433\u043d\u043e\u0439\u043d\u044b\u0439 \u043d\u0430\u0440\u044b\u0432 \u043d\u0430 \u0441\u044b\u0440\u043d\u043e\u043c \u043f\u0440\u043e\u0438\u0437\u0432\u043e\u0434\u0441\u0442\u0432\u0435:(( \u0423 \u043d\u0430\u0441 \u043a\u0430\u043c\u0435\u043d\u043d\u044b\u0439 \u0432\u0435\u043a \u043d\u0430 \u0434\u0432\u043e\u0440\u0435? \u041d\u0435\u0443\u0436\u0435\u043b\u0438 \u0438 \u043f\u0440\u0430\u0432\u0434\u0430 \u0443 \u043d\u0430\u0441 \u0435\u0441\u0442\u044c \u0442\u0430\u043a\u0438\u0435 \u0440\u0430\u0439\u043e\u043d\u044b \u0432 \u043e\u0431\u043b\u0430\u0441\u0442\u0438?! \u0417\u0430\u0442\u043e \u043d\u0430 \u0441\u043e\u0434\u0435\u0440\u0436\u0430\u043d\u0438\u0435 \u043e\u0431\u043b.\u0430\u043f\u043f\u0430\u0440\u0430\u0442\u0430 \u043d\u0435 \u043e\u0434\u0438\u043d \u043c\u0438\u043b\u043b\u0438\u043e\u043d \u0443\u0442\u0435\u043a\u0430\u0435\u0442\u2026
p353
I-1
tp354
a(V\u043f\u0440\u0438\u0446\u0435\u043f \u0443\u0441\u0442\u0430\u043b \u0435\u0437\u0434\u0438\u0442\u044c \u0441\u043e \u0441\u043a\u043e\u0440\u043e\u0441\u0442\u044c\u044e 130-150\u043a\u043c \u0432 \u0437\u0430\u043c\u0435\u043d \u0440\u0430\u0437\u0440\u0435\u0448\u043e\u043d\u043e\u0439 70.
p355
I0
tp356
a(V\u0414\u0430 \u043d\u0430\u0448\u0438 \u0432\u044b\u043f\u0443\u0441\u043a\u043d\u0438\u043a\u0438 \u2014 \u0442\u043e\u0436\u0435 \u043d\u0438\u0447\u0451! \u0421\u043e\u0431\u0447\u0430\u043a \u041c\u0413\u0418\u041c\u041e \u2014 \u043e\u043a\u043e\u043d\u0447\u0438\u043b\u0430!))) \u0418 \u0447\u0451?
p357
I1
tp358
a(V-1. \u0412\u043e\u043e\u0431\u0449\u0435 \u0432\u0435\u0434\u0435\u0448\u044c \u0441\u0435\u0431\u044f \u043f\u043e\u0437\u043e\u0440\u043d\u043e. \u0411\u044b\u043b\u0430 \u0431\u044b \u0431\u0430\u0431\u0430 \u044f \u043f\u043e\u043d\u044f\u043b\u0430. \u0410 \u043a\u043e\u0433\u0434\u0430 \u043c\u0443\u0436\u0438\u043a \u0442\u0430\u043a \u0441\u0442\u0435\u0431\u0430\u0435\u0442\u0441\u044f. \u0424\u0443.
p359
I-1
tp360
a(V\u041d\u0443, \u0430 \u0444\u0438\u0433\u043b\u0438 \u043a\u043e\u043c\u043c\u0435\u043d\u0442\u044b \u043f\u043e\u0442\u0451\u0440\u043b\u0438? \u041b\u0435\u0442\u043e\u0432, \u0441\u043a\u0430\u0436\u0438, \u043f\u043e\u0436\u0430\u043b\u0443\u0439\u0441\u0442\u0430, \u0433\u0434\u0435 \u043d\u0430\u0445\u043e\u0434\u0438\u0442\u0441\u044f \u0430\u0432\u0442\u043e\u0434\u043e\u0440\u043e\u0433\u0430 \u041e\u043c\u0441\u043a-\u0410\u043d\u0434\u0440\u0435\u0435\u0432\u043a\u0430?
p361
I-1
tp362
a(V\u0415\u0449\u0451 \u0432 60\u0442\u044b\u0435 \u0433\u043e\u0434\u044b \u043a \u043d\u0430\u043c \u0432 \u041e\u043c\u0441\u043a \u043f\u0440\u0438\u0435\u0437\u0436\u0430\u043b\u0438 \u0441\u043f\u0435\u0446\u0438\u0430\u043b\u0438\u0441\u0442\u044b \u0438\u0437 \u041b\u0435\u043d\u0438\u043d\u0433\u0440\u0430\u0434\u0430. \u0412\u0437\u044f\u043b\u0438 \u0430\u043d\u0430\u043b\u0438\u0437 \u0433\u0440\u0443\u043d\u0442\u0430 \u0438 \u0441\u043a\u0430\u0437\u0430\u043b\u0438, \u0447\u0442\u043e \u043d\u0430\u043c \u041e\u043c\u0438\u0447\u0430\u043c \u043d\u0443\u0436\u043d\u043e \u0437\u0430\u0431\u044b\u0442\u044c \u043f\u0440\u043e \u043c\u0435\u0442\u0440\u043e.
p363
I-1
tp364
a(V\u0417\u0430\u0441\u0442\u0440\u043e\u044f\u0442 \u0432\u0441\u0435 \u0440\u0430\u0432\u043d\u043e. \u0425\u043e\u0440\u043e\u0448\u043e \u0431\u044b \u043f\u0430\u0440\u0443 \u043d\u043e\u0440\u043c\u0430\u043b\u044c\u043d\u044b\u0445 \u043f\u0440\u043e\u0435\u0437\u0434\u043e\u0432 \u0447\u0435\u0440\u0435\u0437 \u0442\u0435\u0440\u0440\u0438\u0442\u043e\u0440\u0438\u044e \u043f\u0440\u043e\u043b\u043e\u0436\u0438\u043b\u0438 \u2014 \u0432\u0434\u043e\u043b\u044c \u0438 \u043f\u043e\u043f\u0435\u0440\u0435\u043a, \u0434\u043e \u0417\u0435\u043b\u0435\u043d\u043e\u0433\u043e \u043e\u0441\u0442\u0440\u043e\u0432\u0430. \u0421\u0435\u0439\u0447\u0430\u0441 \u0432\u0435\u0434\u044c \u043d\u0443 \u043d\u0438\u043a\u0430\u043a \u043f\u043e \u041a\u0435\u043c\u0435\u0440\u043e\u0432\u0441\u043a\u043e\u0439 \u043d\u0435 \u043f\u0440\u043e\u0439\u0442\u0438, \u043f\u044b\u043b\u044c, \u043a\u0440\u0438\u0432\u043e\u0439 \u0443\u0437\u043a\u0438\u0439 \u0442\u0440\u043e\u0442\u0443\u0430\u0440 \u0438 \u0443\u0431\u043e\u0433\u043e\u0441\u0442\u044c. \u0410 \u0434\u0435\u0442\u0441\u0430\u0434 \u0441\u043e \u0448\u043a\u043e\u043b\u043e\u0439 \u0431\u0443\u0434\u0443\u0442 \u0441\u0442\u0440\u043e\u0438\u0442\u044c? \u0410 \u0442\u043e \u0432\u0435\u0434\u044c \u0440\u044f\u0434\u043e\u043c \u043e\u0434\u043d\u0430 77-\u044f \u0448\u043a\u043e\u043b\u0430 \u0438 \u043e\u0434\u043d\u0430 \u043f\u043e\u043b\u0438\u043a\u043b\u0438\u043d\u0438\u043a\u0430.
p365
I-1
tp366
a(V\u0418\u0433\u043e\u0440\u044c1002.08.2014 13: 36: 27 \u041d\u0443, \u0432\u043e\u0442, \u0447\u0442\u043e \u0438 \u0442\u0440\u0435\u0431\u043e\u0432\u0430\u043b\u043e\u0441\u044c \u0434\u043e\u043a\u0430\u0437\u0430\u0442\u044c. \u0414\u0435\u0431\u0438\u043b \u043c\u0438\u043c\u043e \u043f\u043e\u0432\u0442\u043e\u0440\u044f\u0435\u0442 \u0437\u0430 \u0434\u0435\u0431\u0438\u043b\u043e\u043c \u041b\u044b\u0441\u0435\u043d\u043a\u043e ------------- \u0410 \u0432\u043e\u0442 \u0438 \u043e\u0447\u0435\u0440\u0435\u0434\u043d\u043e\u0435 \u0434\u043e\u043a\u0430\u0437\u0430\u0442\u0435\u043b\u044c\u0441\u0442\u0432\u043e \u043f\u0441\u0438\u0445\u0438\u0447\u0435\u0441\u043a\u043e\u0433\u043e \u043d\u0435\u0437\u0434\u043e\u0440\u043e\u0432\u044c\u044f \u0430\u0432\u0442\u043e\u0440\u0430 \u2014 \u0438 \u043a\u043e\u043c\u043c\u0435\u043d\u0442\u0430\u0442\u043e\u0440 \u0443 \u043d\u0435\u0433\u043e \u0434\u0435\u0431\u0438\u043b, \u0438 \u041b\u044b\u0441\u0435\u043d\u043a\u043e \u0443 \u043d\u0435\u0433\u043e \u0434\u0435\u0431\u0438\u043b, \u0438 \u043f\u043e\u0441\u043e\u043b \u0443 \u043d\u0435\u0433\u043e \u0434\u0435\u0431\u0438\u043b, \u043e\u0434\u0438\u043d \u0424\u0435\u0434\u043e\u0440\u043e\u0432 \u2014 \u0432 \u0431\u0435\u043b\u043e\u043c \u0441\u043c\u043e\u043a\u0438\u043d\u0433\u0435!
p367
I-1
tp368
a(V\u041f\u0430\u0442\u0440\u0438\u043e\u0442 \u043d\u0430\u0432\u0435\u0440\u043d\u043e \u043d\u0438\u0447\u0435\u0433\u043e \u0442\u0430\u043a \u0438 \u043d\u0435 \u043f\u043e\u043d\u044f\u043b. \u0423 \u043d\u0430\u0441 \u0441\u0438\u043b\u044c\u043d\u044b\u0445 \u0440\u0443\u043a\u043e\u0432\u043e\u0434\u0438\u0442\u0435\u043b\u0435\u0439 \u043d\u0435 \u0441\u043d\u0438\u043c\u0430\u044e\u0442!!!
p369
I0
tp370
a(V\u0410 \u0435\u0441\u043b\u0438 \u043d\u0435 \u043f\u043e\u043c\u043d\u0438\u0448\u044c, \u0447\u0442\u043e \u0437\u0430 \u043b\u0438\u0446\u043e \u0442\u0435\u0431\u0435 \u0435\u0435 \u0432\u0440\u0443\u0447\u0438\u043b\u043e, \u0447\u0442\u043e \u0434\u0435\u043d\u044c\u0433\u0438 \u0442\u0435\u0440\u044f\u0442\u044c? \u041f\u043e\u043b\u0443\u0447\u0430\u0435\u0442\u0441\u044f \u043a\u0430\u043a-\u0442\u043e \u043d\u0435 \u043a\u0440\u0430\u0441\u0438\u0432\u043e \u0441\u043e \u0441\u0442\u043e\u0440\u043e\u043d\u044b \u0433\u043e\u0441\u0443\u0434\u0430\u0440\u0441\u0442\u0432\u0430. \u042f \u0431\u044b \u0442\u043e\u0447\u043d\u043e \u043d\u0435 \u043f\u043e\u0448\u0435\u043b,\u0430 \u043f\u043e\u043f\u044b\u0442\u0430\u043b\u0441\u044f \u043f\u043e\u043c\u0435\u043d\u044f\u0442\u044c.
p371
I0
tp372
a(V\u0438\u043d\u0442\u0435\u0440\u0435\u0441\u043d\u043e \u0432\u0441\u0435\u043c \u0434\u0430\u0434\u0443\u0442 \u0437\u0430\u0440\u043f\u043b\u0430\u0442\u0443
p373
I0
tp374
a(V\u041f\u0440\u0438\u0445\u043e\u0434\u0438\u043b\u043e\u0441\u044c \u0435\u0437\u0434\u0438\u0442\u044c \u043d\u0430 \u043d\u0430\u0448\u0435\u0439 "\u041a\u0430\u043c\u0440\u0438"\u043d\u043e\u0432\u043e\u0439 \u0438 \u044f\u043f\u043e\u043d\u0441\u043a\u043e\u0439 \u0441\u0442\u0430\u0440\u0435\u043d\u044c\u043a\u043e\u0439.\u0414\u043e\u043b\u0436\u0435\u043d \u043f\u0440\u0438\u0437\u043d\u0430\u0442\u044c \u044d\u0442\u043e \u0434\u0432\u0435 \u0431\u043e\u043b\u044c\u0448\u0438\u0445 \u0440\u0430\u0437\u043d\u0438\u0446\u044b.\u041d\u0435 \u0443\u043c\u0435\u044e\u0442 \u043d\u0430\u0448\u0438 \u0434\u0435\u043b\u0430\u0442\u044c \u0438\u043b\u0438 \u043f\u0440\u043e\u0441\u0442\u043e \u0440\u0430\u0437\u0443\u0447\u0438\u043b\u0438\u0441\u044c!
p375
I-1
tp376
a(V\u0412\u0441\u0435 \u0432 \u043a\u0443\u0447\u0443 \u0441\u043e\u0431\u0440\u0430\u043b. \u0422\u0430\u043a \u043d\u0430\u0434\u043e \u0437\u0430\u043d\u0438\u043c\u0430\u0442\u044c\u0441\u044f \u043a\u043e\u043d\u0442\u0440\u043e\u043b\u0435\u043c \u0437\u0430 \u0431\u0435\u0437\u0434\u043e\u043c\u043d\u044b\u043c\u0438 \u0441\u043e\u0431\u0430\u043a\u0430\u043c\u0438 \u0438\u043b\u0438 \u043d\u0435\u0442? \u0421\u043d\u0430\u0447\u0430\u043b\u0430 \u043d\u0430\u043f\u0438\u0441\u0430\u043b, \u0447\u0442\u043e \u043f\u0440\u043e\u0431\u043b\u0435\u043c \u043c\u0430\u0441\u0441\u0430 \u0432 \u0433\u043e\u0440\u043e\u0434\u0435, \u043f\u043e\u0442\u043e\u043c \u043d\u0430\u043f\u0438\u0441\u0430\u043b, \u0447\u0442\u043e \u043e\u043d\u0438 \u043e\u043f\u0430\u0441\u043d\u044b. \u041f\u0435\u0440\u0435\u0432\u0435\u0434\u0438! \u0422\u043e, \u0447\u0442\u043e \u0432\u043e\u043b\u043e\u043d\u0442\u0435\u0440\u044b \u0431\u0443\u0434\u0443\u0442 \u0435\u0437\u0434\u0438\u0442\u044c \u043f\u043e \u0441\u0432\u043e\u0435\u0439 \u0438\u043d\u0438\u0446\u0438\u0430\u0442\u0438\u0432\u0435 \u0441 \u0421\u0410\u0425\u043e\u0432\u0446\u0430\u043c\u0438 \u043d\u0438\u0447\u0435\u043c \u0447\u0438\u043d\u043e\u0432\u043d\u0438\u043a\u043e\u0432 \u043d\u0435 \u043e\u0442\u0432\u043b\u0435\u0447\u0435\u0442 \u043e\u0442 \u0440\u0430\u0431\u043e\u0442\u044b, \u0438 \u0434\u0435\u043d\u0435\u0433 \u0438\u0437 \u0431\u044e\u0434\u0436\u0435\u0442\u0430 \u043d\u0435 \u043f\u043e\u0442\u0440\u0435\u0431\u0443\u0435\u0442. \u042d\u0442\u043e \u043b\u0438\u0448\u044c \u043e\u0431\u0435\u0437\u043e\u043f\u0430\u0441\u0438\u0442 \u0433\u0438\u0431\u0435\u043b\u044c \u0434\u043e\u043c\u0430\u0448\u043d\u0438\u0445 \u043f\u0438\u0442\u043e\u043c\u0446\u0435\u0432, \u043a\u043e\u0442\u043e\u0440\u044b\u0435 \u043f\u0440\u043e\u0441\u0442\u043e \u043f\u043e\u0442\u0435\u0440\u044f\u043b\u0438\u0441\u044c \u0438 \u043a\u043e\u0442\u043e\u0440\u044b\u0445 \u0445\u043e\u0437\u044f\u0435\u0432\u0430 \u0438\u0449\u0443\u0442. \u0417\u0430\u0447\u0435\u043c \u0438\u0441\u043a\u0430\u0442\u044c \u043c\u0438\u043d\u0443\u0441\u044b \u0442\u0430\u043c, \u0433\u0434\u0435 \u0438\u0445 \u043d\u0435\u0442? \u0427\u0442\u043e \u0437\u0430 \u043d\u0430\u0442\u0443\u0440\u0430 \u0442\u0430\u043a\u0430\u044f, \u0433\u043d\u0438\u043b\u0430\u044f?
p377
I-1
tp378
a(V\u041c\u043e\u0436\u043d\u043e \u0435\u0449\u0435 \u043e\u0445\u0440\u0430\u043d\u0443 \u0441 \u0430\u0432\u0442\u043e\u043c\u0430\u0442\u0430\u043c\u0438 \u043f\u043e\u0441\u0442\u0430\u0432\u0438\u0442\u044c, \u0447\u0442\u043e\u0431 \u043e\u0441\u043e\u0431\u043e \u0443\u043c\u043d\u044b\u0435 \u043d\u0435 \u043f\u044b\u0442\u0430\u043b\u0438\u0441\u044c \u0432\u044b\u0431\u0440\u0430\u0442\u044c\u0441\u044f \u0438\u0437 \u0441\u043f\u043e\u0440\u0442\u0437\u0430\u043b\u0430.
p379
I-1
tp380
a(V\u0411\u0435\u0437\u043d\u0430\u043a\u0430\u0437\u0430\u043d\u043d\u043e\u0441\u0442\u044c- \u043f\u043e\u0440\u043e\u0436\u0434\u0430\u0435\u0442 \u0431\u0435\u0441\u043f\u0440\u0435\u0434\u0435\u043b
p381
I-1
tp382
a(V\u0422\u0430\u043a\u0438\u0435 \u0434\u0435\u043d\u044c\u0433\u0438 \u0437\u0430 \u043e\u0431\u0443\u0447\u0435\u043d\u0438\u0435, \u0433\u0434\u0435 \u0436\u0435 \u043f\u043e\u0442\u043e\u043c \u0431\u0443\u0434\u0443\u0442 \u0440\u0430\u0431\u043e\u0442\u0430\u0442\u044c \u044d\u0442\u0438 \u0432\u044b\u043f\u0443\u0441\u043a\u043d\u0438\u043a\u0438?????
p383
I-1
tp384
a(V\u041c\u0430\u0440\u0438\u043d\u0430. \u041b\u0435\u0442 10\u201312 \u043d\u0430\u0437\u0430\u0434, \u043a\u043e\u0433\u0434\u0430 \u043c\u044b \u0443\u0447\u0438\u043b\u0438\u0441\u044c \u0432 \u041e\u041c\u0423 \u0438\u043c \u0428\u0435\u0431\u0430\u043b\u0438\u043d\u0430\u2026\u0440\u0430\u0437\u0440\u0435\u0448\u0430\u043b\u043e\u0441\u044c \u043f\u043e \u0441\u0442\u0443\u0434.\u0431\u0438\u043b\u0435\u0442\u0430\u043c \u043f\u0440\u043e\u0439\u0442\u0438 \u043d\u0430 \u043a\u043e\u043d\u0446\u0435\u0440\u0442 17 \u043e\u043a\u0442\u044f\u0431\u0440\u044f \u043a\u043e\u043d\u0446\u0435\u0440\u0442 \u0431\u044b\u043b \u043d\u0438\u043a\u0430\u043a\u0443\u0449\u0438\u0439 (\u043d\u0430 \u043c\u043e\u0439 \u043d\u0435\u043f\u0440\u043e\u0444\u0435\u0441\u0441\u0438\u043e\u043d\u0430\u043b\u044c\u043d\u044b\u0439 \u0432\u0437\u0433\u043b\u044f\u0434) \u0438 \u043f\u043e\u043b\u0437\u0430\u043b\u0430 \u043d\u0430\u0433\u043d\u0430\u043b\u0438 \u043a\u0443\u0440\u0441\u0430\u043d\u0442\u043e\u0432, \u043d\u043e \u0432\u043e \u0432\u0442\u043e\u0440\u043e\u043c \u0434\u0435\u0439\u0441\u0442\u0432\u0438\u0438 \u0437\u0430\u043b \u0432\u0441\u0435 \u0440\u0430\u0432\u043d\u043e \u0431\u044b\u043b \u043f\u043e\u043b\u0443\u043f\u0443\u0441\u0442\u043e\u0439.
p385
I-1
tp386
a(V\u042d\u0442\u0438 \u0442\u043e\u0447\u043d\u043e \u0432\u044b\u0432\u0435\u0434\u0443\u0442 \u0438\u0437 \u0441\u0442\u0430\u0433\u043d\u0430\u0446\u0438\u0438 \u0432 \u0433\u043b\u0443\u0431\u043e\u043a\u043e\u0435 \u043f\u0438\u043a\u0435\u2026
p387
I-1
tp388
a(V\u041d\u0443 \u0438 \u043f\u0440\u0430\u0432\u0438\u043b\u044c\u043d\u043e \u0441\u0434\u0435\u043b\u0430\u043b\u0438,\u0447\u0442\u043e \u0432\u044b\u0434\u0435\u043b\u0438\u043b\u0438, \u0432 \u0446\u0435\u043d\u0442\u0440\u0435 \u043c\u043d\u043e\u0433\u043e \u0430\u0432\u0442\u043e\u0431\u0443\u0441\u043e\u0432 \u0438 \u043c\u0430\u0440\u0448\u0440\u0443\u0442\u043d\u044b\u0445 \u0413\u0430\u0437\u0435\u043b\u0435\u0439, \u043d\u0435 \u0431\u0443\u0434\u0443\u0442 \u0442\u0435\u043f\u0435\u0440\u044c \u0432\u044b\u0432\u043e\u0440\u0430\u0447\u0438\u0432\u0430\u0442\u044c \u0441 \u043e\u0441\u0442\u0430\u043d\u043e\u0432\u043a\u0438 \u043f\u0440\u044f\u043c\u043e \u043d\u0430 \u043f\u0440\u043e\u0435\u0437\u0436\u0430\u044e\u0449\u0438\u0435 \u043c\u0438\u043c\u043e \u0430\u0432\u0442\u043e\u043c\u043e\u0431\u0438\u043b\u0438, \u0434\u0430 \u0438 \u043b\u044e\u0434\u044f\u043c \u043d\u0435 \u043f\u0440\u0438\u0434\u0435\u0442\u0441\u044f \u0441\u0442\u043e\u044f \u0432 \u043e\u0431\u0449\u0435\u0441\u0442\u0432\u0435\u043d\u043d\u043e\u043c \u0442\u0440\u0430\u043d\u0441\u043f\u043e\u0440\u0442\u0435 \u0443\u043c\u0438\u0440\u0430\u0442\u044c \u043e\u0442 \u0436\u0430\u0440\u044b \u0432 \u043f\u0440\u043e\u0431\u043a\u0435. \u0412 \u0430\u0432\u0442\u043e\u0431\u0443\u0441\u0430\u0445-\u0442\u043e \u043a\u043e\u043d\u0434\u0438\u0446\u0438\u043e\u043d\u0435\u0440\u044b \u043d\u0435 \u043f\u0440\u0435\u0434\u0443\u0441\u043c\u043e\u0442\u0440\u0435\u043d\u044b.
p389
I1
tp390
a(V\u042f\u043d\u0443\u043a\u043e\u0432\u0438\u0447-\u0432\u043e\u0440\u044e\u0433\u0430.\u041d\u0430 \u0423\u043a\u0440\u0430\u0438\u043d\u0435 \u0441\u043e\u0431\u044b\u0442\u0438\u044f \u043a\u0430\u043a \u0432 1917 \u0433\u043e\u0434\u0443 \u0441\u043d\u0430\u0447\u0430\u043b\u0430 \u0444\u0435\u0432\u0440\u0430\u043b\u044c\u0441\u043a\u0430\u044f \u0440\u0435\u0432\u043e\u043b\u044e\u0446\u0438\u044f \u043f\u043e\u0442\u043e\u043c \u043e\u043a\u0442\u044f\u0431\u0440\u044c \u0438 \u0433\u0440\u0430\u0436\u0434\u0430\u043d\u0441\u043a\u0430\u044f \u0432\u043e\u0439\u043d\u0430.\u0410 \u044d\u0442\u043e\u0442 \u044d\u043a\u0441-\u043f\u0440\u0435\u0437\u0438\u0434\u0435\u043d\u0442 \u0442\u0430\u043a \u0438 \u0431\u0443\u0434\u0435\u0442 \u0441\u0438\u0434\u0435\u0442\u044c \u0432 \u0420\u043e\u0441\u0441\u0438\u0438 \u0434\u043e \u0441\u043c\u0435\u0440\u0442\u0438 \u0438 \u043f\u043b\u0430\u043a\u0430\u0442\u044c, \u0435\u0441\u043b\u0438 \u0443\u0435\u0434\u0435\u0442 \u0437\u0430\u0433\u0440\u0430\u043d\u0438\u0446\u0443 \u0435\u0433\u043e \u0436\u0434\u0451\u0442 \u0441\u0443\u0434\u044c\u0431\u0430 \u0422\u0440\u043e\u0446\u043a\u043e\u0433\u043e \u0431\u0430\u043d\u0434\u0435\u0440\u043e\u0432\u0446\u044b \u0435\u0433\u043e \u0434\u043e\u0441\u0442\u0430\u043d\u0443\u0442 .\u0416\u0430\u043b\u044c \u0423\u043a\u0440\u0430\u0438\u043d\u0443.
p391
I-1
tp392
a(V\u0441\u0435\u0439\u0447\u0430\u0441 \u0432\u044b\u0439\u0442\u0438 \u0432 \u043f\u043b\u0435\u0439-\u043e\u0444\u0444 \u2014 \u044d\u0442\u043e \u0438 \u0435\u0441\u0442\u044c \u0437\u0430\u0434\u0430\u0447\u0430 \u0434\u043b\u044f \u0440\u0436\u0438\u0433\u0438, \u0431\u043e\u043b\u044c\u0448\u0435\u0433\u043e \u0441 \u043d\u0435\u0433\u043e \u0432\u0440\u044f\u0434 \u043b\u0438 \u043c\u043e\u0436\u043d\u043e \u043e\u0436\u0438\u0434\u0430\u0442\u044c., \u043d\u043e \u2014 \u0445\u043e\u0442\u044f \u0431\u044b \u0432\u044b\u0439\u0442\u0438 \u2014 \u0432\u043e\u0442 \u044d\u0442\u043e \u0445\u043e\u0442\u044f \u0431\u044b \u0438 \u043c\u0430\u043a\u0441\u0438\u043c\u0443\u043c, \u0447\u0442\u043e \u043e\u043d \u0441\u043c\u043e\u0436\u0435\u0442 \u0432 \u044d\u0442\u043e\u0442 \u0433\u043e\u0434. \u0442\u0430\u043a \u0447\u0442\u043e \u2014 \u043d\u0430\u0447\u0438\u043d\u0430\u0442\u044c \u0441\u0440\u0430\u0437\u0443 \u0441 \u043e\u043f\u0440\u0430\u0432\u0434\u044b\u0432\u0430\u043d\u0438\u044f \u0431\u0443\u0434\u0443\u0449\u0435\u0433\u043e \u043d\u0435-\u0432\u044b\u0445\u043e\u0434\u0430, \u043a\u043e\u0442\u043e\u0440\u043e\u0433\u043e \u0435\u0449\u0435 \u0438 \u043d\u0435 \u0441\u043e\u0441\u0442\u043e\u044f\u043b\u043e\u0441\u044c \u2014 \u0442\u043e\u0436 \u043d\u0435 \u0441\u0442\u043e\u0438\u0442\u2026
p393
I0
tp394
a(V\u041a\u043e\u043d\u0435\u0447\u043d\u043e \u0442\u0435\u043f\u0435\u0440\u044c \u0437\u0430\u043a\u0430\u0437\u044b \u0435\u0441\u0442\u044c \u0442\u043e\u043b\u044c\u043a\u043e \u0440\u0430\u0431\u043e\u0442\u0430\u0442\u044c \u043d\u0435\u043a\u043e\u043c\u0443
p395
I-1
tp396
a(V\u041a\u0442\u043e-\u043d\u0438\u0431\u0443\u0434\u044c \u043f\u043e\u043d\u044f\u043b \u043a\u0430\u043a \u043d\u043e\u0432\u044b\u0435 \u043c\u0430\u0440\u0448\u0440\u0443\u0442\u044b \u0431\u0443\u0434\u0443\u0442 \u043f\u0440\u043e\u043b\u043e\u0436\u0435\u043d\u044b? \u041e\u0441\u043e\u0431\u0435\u043d\u043d\u043e 18?
p397
I0
tp398
a(V\u0417\u0430\u0432\u0438\u0441\u0442\u043b\u0438\u0432\u044b\u0435 \u0442\u0432\u0430\u0440\u0438!!! \u0412\u044b \u0447\u0442\u043e \u0434\u0443\u043c\u0430\u0435\u0442\u0435 \u0442\u0435 \u0434\u0435\u043d\u044c\u0433\u0438 \u043a\u043e\u0442\u043e\u0440\u044b\u0435 \u0442\u0440\u0430\u0442\u044f\u0442 \u043d\u0430 \u0410\u0432\u0430\u043d\u0433\u0430\u0440\u0434 \u043f\u043e\u0448\u043b\u0438 \u0431\u044b \u0434\u0435\u0442\u044f\u043c \u0441\u0442\u0430\u0440\u0438\u043a\u0430\u043c \u0438  \u043d\u0430 \u0441\u043e\u0446\u043d\u0443\u0436\u0434\u044b? \u0410\u0433\u0430 \u043a\u043e\u043d\u0435\u0447\u043d\u043e \u0449\u0430\u0437 \u0434\u0432\u0430 \u0440\u0430\u0437\u0430!!! \u0417\u0430\u0432\u0438\u0434\u0443\u0435\u043c \u043c\u043e\u043b\u0447\u0430 \u0431\u044b\u0434\u043b\u043e \u0432\u044b \u0441\u0442\u0440\u0451\u043c\u043d\u043e\u0435!!!
p399
I-1
tp400
a(V\u0418\u0434\u0438 \u0443\u0440\u043e\u043a\u0438 \u0443\u0447\u0438 \u0434\u0432\u043e\u0435\u0447\u043d\u0438\u043a.
p401
I-1
tp402
a(V\u0425\u043e\u0440\u043e\u0448\u0435\u0435 \u0438\u043d\u0442\u0435\u0440\u0432\u044c\u044e!
p403
I1
tp404
a(V\u043c\u0435\u0442\u0440\u043e \u0434\u043e\u0441\u0442\u0440\u043e\u044f\u0442????????????????
p405
I-1
tp406
a(V\u0420\u0430\u0441\u0441\u0442\u0440\u0435\u043b\u044f\u0442\u044c
p407
I-1
tp408
a(V\u041d\u0430 \u043b\u044e\u0431\u0438\u0442\u0435\u043b\u044f, \u043d\u043e \u043d\u0435 \u0441\u0442\u0440\u0430\u0448\u043d\u0430\u044f!
p409
I0
tp410
a.