(lp0
(S'0'
p1
I-2
tp2
a(S'-'
p3
I-2
tp4
a(g1
I0
tp5
a(g1
I0
tp6
a(g3
I-2
tp7
a(g3
I-1
tp8
a(g3
I-4
tp9
a(S'+'
p10
I1
tp11
a(g10
I0
tp12
a(g3
I2
tp13
a(g1
I0
tp14
a(g10
I-2
tp15
a(g10
I-2
tp16
a(g1
I0
tp17
a(g3
I-1
tp18
a(g3
I-2
tp19
a(g3
I-2
tp20
a(g3
I0
tp21
a(g1
I0
tp22
a(g3
I-1
tp23
a(g3
I-3
tp24
a(g10
I0
tp25
a(g1
I0
tp26
a(g1
I0
tp27
a(g1
I0
tp28
a(g10
I0
tp29
a(g1
I0
tp30
a(g10
I1
tp31
a(g1
I0
tp32
a(g3
I0
tp33
a(g3
I0
tp34
a(g3
I0
tp35
a(g10
I0
tp36
a(g3
I0
tp37
a(g10
I2
tp38
a(g10
I-1
tp39
a(g1
I0
tp40
a(g3
I-2
tp41
a(g1
I0
tp42
a(g1
I1
tp43
a(g10
I0
tp44
a(g3
I-3
tp45
a(g1
I-2
tp46
a(g3
I0
tp47
a(g3
I0
tp48
a(g3
I-1
tp49
a(g1
I0
tp50
a(g3
I-1
tp51
a(g3
I-1
tp52
a(g1
I1
tp53
a(g3
I0
tp54
a(g3
I0
tp55
a(g10
I0
tp56
a(g1
I0
tp57
a(g3
I-2
tp58
a(g3
I0
tp59
a(g3
I0
tp60
a(g3
I0
tp61
a(g3
I1
tp62
a(g3
I0
tp63
a(g1
I0
tp64
a(g10
I-1
tp65
a(g1
I-2
tp66
a(g1
I0
tp67
a(g1
I0
tp68
a(g3
I-4
tp69
a(g1
I0
tp70
a(g1
I2
tp71
a(g10
I0
tp72
a(g3
I0
tp73
a(g3
I-2
tp74
a(g3
I-2
tp75
a(g10
I0
tp76
a(g3
I-1
tp77
a(g3
I-1
tp78
a(g3
I0
tp79
a(g3
I-2
tp80
a(g3
I0
tp81
a(g3
I0
tp82
a(g1
I1
tp83
a(g10
I2
tp84
a(g1
I0
tp85
a(g10
I-1
tp86
a(g3
I-2
tp87
a(g10
I0
tp88
a(g10
I1
tp89
a(g10
I-2
tp90
a(g1
I-2
tp91
a(g1
I0
tp92
a(g10
I0
tp93
a(g3
I0
tp94
a(g10
I-2
tp95
a(g3
I-1
tp96
a(g1
I0
tp97
a(g10
I1
tp98
a(g1
I-2
tp99
a(g10
I1
tp100
a(g1
I-2
tp101
a(g10
I0
tp102
a(g3
I0
tp103
a(g10
I0
tp104
a(g10
I1
tp105
a(g1
I-2
tp106
a(g10
I0
tp107
a(g10
I0
tp108
a(g3
I-2
tp109
a(g3
I-1
tp110
a(g3
I0
tp111
a(g3
I0
tp112
a(g3
I-4
tp113
a(g10
I2
tp114
a(g10
I-2
tp115
a(g1
I1
tp116
a(g10
I-1
tp117
a(g3
I0
tp118
a(g1
I0
tp119
a(g3
I-1
tp120
a(g10
I0
tp121
a(g10
I2
tp122
a(g3
I0
tp123
a(g10
I0
tp124
a(g3
I1
tp125
a(g3
I-3
tp126
a(g1
I0
tp127
a(g1
I0
tp128
a(g1
I0
tp129
a(g1
I0
tp130
a(g1
I0
tp131
a(g10
I0
tp132
a(g10
I-1
tp133
a(g10
I-1
tp134
a(g10
I1
tp135
a(g10
I-1
tp136
a(g3
I-2
tp137
a(g10
I0
tp138
a(g10
I2
tp139
a(g3
I0
tp140
a(g10
I0
tp141
a(g10
I1
tp142
a(g3
I0
tp143
a(g1
I-1
tp144
a(g3
I1
tp145
a(g10
I0
tp146
a(g3
I0
tp147
a(g1
I0
tp148
a(g3
I0
tp149
a(g1
I1
tp150
a(g1
I-2
tp151
a(g3
I-4
tp152
a(g10
I0
tp153
a(g1
I1
tp154
a(g3
I1
tp155
a(g3
I0
tp156
a(g10
I-1
tp157
a(g10
I1
tp158
a(g3
I-4
tp159
a(g3
I0
tp160
a(g3
I-2
tp161
a(g10
I0
tp162
a(g3
I0
tp163
a(g10
I2
tp164
a(g3
I0
tp165
a(g3
I-1
tp166
a(g10
I-1
tp167
a(g10
I-1
tp168
a(g10
I0
tp169
a(g10
I0
tp170
a(g10
I2
tp171
a(g10
I0
tp172
a(g10
I0
tp173
a(g3
I-1
tp174
a(g10
I0
tp175
a(g10
I1
tp176
a(g3
I-2
tp177
a(g3
I-1
tp178
a(g3
I0
tp179
a(g3
I1
tp180
a(g3
I-1
tp181
a(g3
I0
tp182
a(g10
I0
tp183
a(g3
I0
tp184
a(g1
I1
tp185
a(g1
I0
tp186
a(g3
I-3
tp187
a(g3
I1
tp188
a(g3
I1
tp189
a(g3
I0
tp190
a(g10
I0
tp191
a(g10
I2
tp192
a(g10
I0
tp193
a(g3
I-1
tp194
a(g10
I0
tp195
a(g3
I-2
tp196
a(g10
I0
tp197
a(g3
I-1
tp198
a(g10
I3
tp199
a(g1
I0
tp200
a(g3
I-3
tp201
a(g10
I0
tp202
a(g3
I0
tp203
a(g3
I0
tp204
a(g1
I0
tp205
a(g10
I0
tp206
a(g3
I-2
tp207
a(g1
I0
tp208
a(g10
I3
tp209
a(g10
I0
tp210
a(g3
I0
tp211
a(g3
I-2
tp212
a(g1
I0
tp213
a(g10
I-2
tp214
a(g10
I0
tp215
a(g1
I0
tp216
a(g1
I0
tp217
a(g3
I-4
tp218
a(g3
I0
tp219
a(g1
I0
tp220
a(g1
I1
tp221
a(g1
I-1
tp222
a(g3
I0
tp223
a(g3
I-3
tp224
a(g3
I0
tp225
a(g1
I0
tp226
a(g10
I0
tp227
a(g1
I0
tp228
a(g10
I2
tp229
a(g3
I0
tp230
a(g10
I0
tp231
a(g10
I1
tp232
a(g10
I-1
tp233
a(g10
I0
tp234
a(g10
I-1
tp235
a(g3
I0
tp236
a(g1
I1
tp237
a(g1
I0
tp238
a(g1
I0
tp239
a(g10
I-1
tp240
a(g10
I1
tp241
a(g1
I-1
tp242
a(g1
I0
tp243
a(g1
I0
tp244
a(g10
I0
tp245
a(g3
I0
tp246
a(g3
I0
tp247
a(g3
I0
tp248
a(g3
I-1
tp249
a(g3
I-1
tp250
a(g3
I0
tp251
a(g3
I-1
tp252
a(g10
I0
tp253
a(g1
I0
tp254
a(g1
I0
tp255
a(g10
I-1
tp256
a(g3
I-1
tp257
a(g3
I-2
tp258
a(g10
I0
tp259
a(g1
I0
tp260
a(g1
I-2
tp261
a(g10
I0
tp262
a(g1
I0
tp263
a(g3
I0
tp264
a(g10
I0
tp265
a(g3
I0
tp266
a(g10
I0
tp267
a(g10
I2
tp268
a(g3
I0
tp269
a(g3
I-1
tp270
a(g3
I0
tp271
a(g1
I0
tp272
a(g3
I1
tp273
a(g10
I0
tp274
a(g10
I1
tp275
a(g3
I1
tp276
a(g10
I0
tp277
a(g1
I0
tp278
a(g3
I-2
tp279
a(g1
I2
tp280
a(g3
I-1
tp281
a(g3
I2
tp282
a(g1
I-2
tp283
a(g3
I-2
tp284
a(g3
I-3
tp285
a(g3
I0
tp286
a(g3
I-2
tp287
a(g3
I0
tp288
a(g10
I2
tp289
a(g10
I0
tp290
a(g3
I1
tp291
a(g10
I-4
tp292
a(g3
I2
tp293
a(g10
I-2
tp294
a(g10
I4
tp295
a(g1
I1
tp296
a(g1
I0
tp297
a(g3
I1
tp298
a(g3
I-1
tp299
a(g10
I2
tp300
a(g10
I0
tp301
a(g3
I0
tp302
a(g10
I2
tp303
a(g1
I0
tp304
a(g1
I0
tp305
a(g10
I0
tp306
a(g3
I0
tp307
a(g1
I0
tp308
a(g1
I-2
tp309
a(g1
I0
tp310
a(g3
I-1
tp311
a(g3
I1
tp312
a(g1
I0
tp313
a(g3
I0
tp314
a(g3
I0
tp315
a(g10
I0
tp316
a(g10
I0
tp317
a(g10
I0
tp318
a(g1
I-1
tp319
a(g10
I1
tp320
a(g1
I0
tp321
a(g10
I0
tp322
a(g3
I-1
tp323
a(g3
I-2
tp324
a(g10
I-1
tp325
a(g10
I-2
tp326
a(g10
I0
tp327
a(g3
I0
tp328
a(g1
I0
tp329
a(g1
I1
tp330
a(g3
I0
tp331
a(g3
I0
tp332
a(g3
I0
tp333
a(g3
I-1
tp334
a(g3
I1
tp335
a(g10
I0
tp336
a(g3
I0
tp337
a(g3
I-2
tp338
a(g3
I0
tp339
a(g10
I0
tp340
a(g1
I0
tp341
a(g10
I0
tp342
a(g3
I0
tp343
a(g10
I1
tp344
a(g3
I-4
tp345
a(g10
I0
tp346
a(g1
I0
tp347
a(g10
I1
tp348
a(g3
I2
tp349
a(g3
I0
tp350
a(g10
I0
tp351
a(g3
I0
tp352
a(g3
I-2
tp353
a(g3
I0
tp354
a(g3
I-1
tp355
a(g3
I1
tp356
a(g1
I0
tp357
a(g3
I1
tp358
a(g1
I-3
tp359
a(g1
I0
tp360
a(g3
I0
tp361
a(g3
I-1
tp362
a(g3
I1
tp363
a(g3
I-1
tp364
a(g10
I0
tp365
a(g1
I0
tp366
a(g1
I0
tp367
a(g10
I-2
tp368
a(g3
I0
tp369
a(g1
I0
tp370
a(g1
I0
tp371
a(g3
I0
tp372
a(g10
I-1
tp373
a(g10
I1
tp374
a(g10
I0
tp375
a(g10
I0
tp376
a(g10
I1
tp377
a(g1
I0
tp378
a(g1
I0
tp379
a(g3
I0
tp380
a(g1
I-2
tp381
a(g1
I-1
tp382
a(g1
I-2
tp383
a(g10
I0
tp384
a(g1
I0
tp385
a(g10
I1
tp386
a(g1
I1
tp387
a(g3
I-2
tp388
a(g3
I-2
tp389
a(g3
I-2
tp390
a(g3
I0
tp391
a(g3
I-1
tp392
a(g1
I-1
tp393
a(g3
I0
tp394
a(g3
I-3
tp395
a(g3
I1
tp396
a(g3
I-2
tp397
a(g1
I1
tp398
a(g10
I0
tp399
a(g10
I0
tp400
a(g3
I-2
tp401
a(g3
I0
tp402
a(g10
I1
tp403
a(g1
I0
tp404
a(g1
I1
tp405
a(g1
I0
tp406
a(g10
I0
tp407
a(g10
I0
tp408
a(g10
I0
tp409
a(g10
I0
tp410
a(g1
I-2
tp411
a(g3
I-3
tp412
a(g3
I-1
tp413
a(g3
I1
tp414
a(g3
I-4
tp415
a(g1
I0
tp416
a(g1
I0
tp417
a(g3
I0
tp418
a(g3
I0
tp419
a(g10
I1
tp420
a(g3
I-1
tp421
a(g3
I-3
tp422
a(g3
I0
tp423
a(g10
I-2
tp424
a(g3
I-2
tp425
a(g3
I-1
tp426
a(g3
I0
tp427
a(g3
I-2
tp428
a(g3
I-1
tp429
a(g3
I0
tp430
a(g1
I0
tp431
a(g3
I-1
tp432
a(g10
I1
tp433
a(g1
I0
tp434
a(g1
I1
tp435
a(g3
I0
tp436
a(g3
I0
tp437
a(g3
I-1
tp438
a(g1
I-2
tp439
a(g10
I0
tp440
a(g10
I0
tp441
a(g3
I0
tp442
a(g3
I-1
tp443
a(g3
I0
tp444
a(g3
I0
tp445
a(g1
I0
tp446
a(g1
I2
tp447
a(g3
I1
tp448
a(g3
I0
tp449
a(g3
I1
tp450
a(g3
I-2
tp451
a(g10
I0
tp452
a(g1
I0
tp453
a(g10
I0
tp454
a(g1
I0
tp455
a(g3
I0
tp456
a(g3
I-2
tp457
a(g10
I0
tp458
a(g10
I2
tp459
a(g3
I-2
tp460
a(g3
I2
tp461
a(g10
I0
tp462
a(g10
I0
tp463
a(g3
I0
tp464
a(g3
I-1
tp465
a(g3
I0
tp466
a(g3
I-1
tp467
a(g3
I-1
tp468
a(g1
I0
tp469
a(g10
I0
tp470
a(g1
I0
tp471
a(g3
I0
tp472
a(g10
I1
tp473
a(g10
I0
tp474
a(g10
I3
tp475
a(g10
I0
tp476
a(g10
I0
tp477
a(g10
I2
tp478
a(g3
I-2
tp479
a(g3
I0
tp480
a(g3
I0
tp481
a(g3
I0
tp482
a(g3
I1
tp483
a(g10
I1
tp484
a(g3
I0
tp485
a(g3
I-2
tp486
a(g3
I-2
tp487
a(g1
I0
tp488
a(g3
I0
tp489
a(g3
I0
tp490
a(g10
I-1
tp491
a(g10
I1
tp492
a(g10
I0
tp493
a(g10
I0
tp494
a(g3
I-2
tp495
a(g1
I-2
tp496
a(g3
I1
tp497
a(g3
I0
tp498
a(g3
I0
tp499
a(g3
I-4
tp500
a(g3
I0
tp501
a(g3
I0
tp502
a(g3
I-2
tp503
a(g10
I0
tp504
a(g3
I0
tp505
a(g3
I0
tp506
a(g10
I0
tp507
a(g1
I-2
tp508
a(g3
I-2
tp509
a(g10
I1
tp510
a(g1
I0
tp511
a(g1
I0
tp512
a(g10
I0
tp513
a(g10
I0
tp514
a(g1
I0
tp515
a(g10
I3
tp516
a(g3
I0
tp517
a(g1
I0
tp518
a(g10
I-1
tp519
a(g10
I0
tp520
a(g10
I0
tp521
a(g10
I0
tp522
a(g10
I0
tp523
a(g10
I0
tp524
a(g10
I1
tp525
a(g1
I0
tp526
a(g3
I0
tp527
a(g10
I0
tp528
a(g10
I0
tp529
a(g1
I0
tp530
a(g3
I0
tp531
a(g3
I0
tp532
a(g10
I2
tp533
a(g3
I-1
tp534
a(g3
I-3
tp535
a(g3
I-1
tp536
a(g3
I-2
tp537
a(g10
I-2
tp538
a(g3
I-2
tp539
a(g1
I0
tp540
a(g1
I0
tp541
a(g1
I0
tp542
a(g3
I-1
tp543
a(g10
I0
tp544
a(g1
I0
tp545
a(g10
I0
tp546
a(g10
I0
tp547
a(g3
I0
tp548
a(g3
I-2
tp549
a(g10
I-2
tp550
a(g10
I0
tp551
a(g3
I0
tp552
a(g10
I-2
tp553
a(g10
I1
tp554
a(g10
I0
tp555
a(g10
I1
tp556
a(g1
I0
tp557
a(g1
I0
tp558
a(g1
I0
tp559
a(g3
I-1
tp560
a(g10
I1
tp561
a(g3
I-4
tp562
a(g1
I0
tp563
a(g10
I0
tp564
a(g3
I-4
tp565
a(g3
I-1
tp566
a(g10
I2
tp567
a(g3
I-2
tp568
a(g3
I0
tp569
a(g3
I-1
tp570
a(g3
I-4
tp571
a(g10
I0
tp572
a(g1
I0
tp573
a(g10
I0
tp574
a(g1
I0
tp575
a(g10
I0
tp576
a(g1
I0
tp577
a(g3
I-2
tp578
a(g1
I0
tp579
a(g10
I0
tp580
a(g10
I1
tp581
a(g10
I-2
tp582
a(g3
I0
tp583
a(g3
I0
tp584
a(g3
I0
tp585
a(g10
I1
tp586
a(g3
I-1
tp587
a(g1
I0
tp588
a(g10
I0
tp589
a(g1
I0
tp590
a(g1
I0
tp591
a(g3
I-2
tp592
a(g3
I-3
tp593
a(g10
I1
tp594
a(g3
I0
tp595
a(g1
I0
tp596
a(g1
I0
tp597
a(g3
I-1
tp598
a(g3
I-2
tp599
a(g3
I0
tp600
a(g3
I-2
tp601
a(g3
I-1
tp602
a(g3
I0
tp603
a(g3
I-1
tp604
a(g3
I-1
tp605
a(g3
I1
tp606
a(g3
I0
tp607
a(g3
I-1
tp608
a(g3
I-2
tp609
a(g3
I-2
tp610
a(g3
I-2
tp611
a(g3
I-1
tp612
a(g1
I0
tp613
a(g3
I0
tp614
a(g1
I0
tp615
a(g1
I0
tp616
a(g3
I0
tp617
a(g1
I0
tp618
a(g10
I1
tp619
a(g3
I0
tp620
a(g1
I0
tp621
a(g3
I-2
tp622
a(g10
I2
tp623
a(g3
I0
tp624
a(g1
I0
tp625
a(g1
I0
tp626
a(g10
I0
tp627
a(g10
I-2
tp628
a(g3
I-2
tp629
a(g3
I0
tp630
a(g1
I2
tp631
a(g10
I0
tp632
a(g10
I0
tp633
a(g10
I0
tp634
a(g10
I0
tp635
a(g3
I1
tp636
a(g3
I-2
tp637
a(g3
I-1
tp638
a(g3
I0
tp639
a(g3
I0
tp640
a(g1
I0
tp641
a(g1
I0
tp642
a(g3
I0
tp643
a(g3
I-2
tp644
a(g3
I0
tp645
a(g3
I-3
tp646
a(g1
I0
tp647
a(g1
I0
tp648
a(g10
I3
tp649
a(g10
I0
tp650
a(g3
I0
tp651
a(g1
I0
tp652
a(g3
I0
tp653
a(g3
I-2
tp654
a(g3
I-2
tp655
a(g3
I-1
tp656
a(g3
I0
tp657
a(g3
I0
tp658
a(g3
I-2
tp659
a(g3
I-2
tp660
a(g3
I0
tp661
a(g3
I1
tp662
a(g3
I0
tp663
a(g10
I0
tp664
a(g1
I0
tp665
a(g10
I0
tp666
a(g10
I0
tp667
a(g3
I-2
tp668
a(g3
I0
tp669
a(g10
I-1
tp670
a(g10
I0
tp671
a(g10
I2
tp672
a(g10
I0
tp673
a(g1
I1
tp674
a(g3
I-3
tp675
a(g10
I2
tp676
a(g3
I1
tp677
a(g3
I0
tp678
a(g3
I0
tp679
a(g3
I-1
tp680
a(g3
I-4
tp681
a(g1
I0
tp682
a(g1
I-2
tp683
a(g3
I1
tp684
a(g3
I-2
tp685
a(g1
I0
tp686
a(g3
I1
tp687
a(g3
I0
tp688
a(g3
I1
tp689
a(g3
I0
tp690
a(g3
I0
tp691
a(g3
I-1
tp692
a(g10
I-1
tp693
a(g3
I-2
tp694
a(g1
I0
tp695
a(g3
I-2
tp696
a(g10
I0
tp697
a(g3
I-1
tp698
a(g3
I-4
tp699
a(g3
I-3
tp700
a(g3
I-2
tp701
a(g1
I0
tp702
a(g1
I0
tp703
a(g10
I1
tp704
a(g1
I0
tp705
a(g10
I2
tp706
a(g10
I0
tp707
a(g3
I0
tp708
a(g10
I0
tp709
a(g3
I1
tp710
a(g3
I3
tp711
a(g1
I-2
tp712
a(g1
I-2
tp713
a(g10
I0
tp714
a(g1
I0
tp715
a(g10
I0
tp716
a(g10
I0
tp717
a(g10
I1
tp718
a(g10
I0
tp719
a(g3
I-4
tp720
a(g3
I-3
tp721
a(g3
I0
tp722
a(g3
I-4
tp723
a(g3
I-2
tp724
a(g3
I0
tp725
a(g3
I0
tp726
a(g3
I-1
tp727
a(g3
I0
tp728
a(g10
I-1
tp729
a(g3
I-1
tp730
a(g10
I-1
tp731
a(g3
I-1
tp732
a(g3
I-2
tp733
a(g3
I0
tp734
a(g1
I-2
tp735
a(g3
I0
tp736
a(g10
I-1
tp737
a(g3
I-2
tp738
a(g1
I-2
tp739
a(g10
I2
tp740
a(g1
I0
tp741
a(g1
I0
tp742
a(g3
I-2
tp743
a(g10
I1
tp744
a(g3
I0
tp745
a(g10
I-2
tp746
a(g10
I2
tp747
a(g3
I-2
tp748
a(g3
I-2
tp749
a(g10
I0
tp750
a(g3
I-1
tp751
a(g3
I-2
tp752
a(g3
I-2
tp753
a(g10
I2
tp754
a(g3
I0
tp755
a(g1
I0
tp756
a(g3
I-1
tp757
a(g3
I-1
tp758
a(g1
I0
tp759
a(g1
I0
tp760
a(g1
I2
tp761
a(g1
I0
tp762
a(g1
I0
tp763
a(g1
I0
tp764
a(g3
I1
tp765
a(g10
I2
tp766
a(g3
I1
tp767
a(g1
I0
tp768
a(g10
I0
tp769
a(g10
I-1
tp770
a(g3
I0
tp771
a(g3
I-3
tp772
a(g3
I2
tp773
a(g10
I1
tp774
a(g1
I-2
tp775
a(g1
I-2
tp776
a(g3
I0
tp777
a(g1
I-2
tp778
a(g1
I0
tp779
a(g3
I3
tp780
a(g3
I0
tp781
a(g10
I0
tp782
a(g3
I0
tp783
a(g1
I0
tp784
a(g3
I-1
tp785
a(g3
I-2
tp786
a(g10
I0
tp787
a(g10
I-1
tp788
a(g3
I0
tp789
a(g3
I-4
tp790
a(g10
I-2
tp791
a(g10
I1
tp792
a(g10
I0
tp793
a(g1
I-3
tp794
a(g1
I-2
tp795
a(g3
I1
tp796
a(g3
I-2
tp797
a(g3
I-2
tp798
a(g3
I-1
tp799
a(g3
I-2
tp800
a(g3
I1
tp801
a(g3
I0
tp802
a(g1
I-1
tp803
a(g10
I1
tp804
a(g1
I-2
tp805
a(g3
I-4
tp806
a(g3
I-3
tp807
a(g3
I0
tp808
a(g1
I0
tp809
a(g1
I0
tp810
a(g3
I0
tp811
a(g10
I0
tp812
a(g10
I0
tp813
a(g1
I0
tp814
a(g1
I0
tp815
a(g1
I0
tp816
a(g3
I-2
tp817
a(g3
I-1
tp818
a(g3
I-2
tp819
a(g10
I0
tp820
a(g1
I0
tp821
a(g3
I0
tp822
a(g3
I1
tp823
a(g3
I0
tp824
a(g1
I0
tp825
a(g3
I0
tp826
a(g3
I0
tp827
a(g1
I0
tp828
a(g3
I0
tp829
a(g3
I0
tp830
a(g3
I0
tp831
a(g3
I0
tp832
a(g3
I-2
tp833
a(g10
I0
tp834
a(g10
I1
tp835
a(g3
I0
tp836
a(g1
I-2
tp837
a(g1
I-2
tp838
a(g10
I1
tp839
a(g3
I0
tp840
a(g3
I0
tp841
a(g3
I-1
tp842
a(g10
I1
tp843
a(g3
I0
tp844
a(g3
I0
tp845
a(g1
I0
tp846
a(g10
I0
tp847
a(g1
I0
tp848
a(g1
I0
tp849
a(g10
I1
tp850
a(g1
I-1
tp851
a(g1
I0
tp852
a(g1
I0
tp853
a(g10
I0
tp854
a(g10
I0
tp855
a(g1
I0
tp856
a(g10
I0
tp857
a(g1
I0
tp858
a(g3
I0
tp859
a(g1
I-2
tp860
a(g3
I1
tp861
a(g10
I0
tp862
a(g3
I-4
tp863
a(g3
I-4
tp864
a(g3
I0
tp865
a(g10
I0
tp866
a(g3
I0
tp867
a(g3
I-1
tp868
a(g3
I-2
tp869
a(g3
I0
tp870
a(g1
I-2
tp871
a(g3
I0
tp872
a(g3
I0
tp873
a(g1
I0
tp874
a(g3
I0
tp875
a(g10
I0
tp876
a(g3
I1
tp877
a(g3
I0
tp878
a(g1
I-3
tp879
a(g10
I0
tp880
a(g3
I0
tp881
a(g3
I1
tp882
a(g1
I0
tp883
a(g10
I0
tp884
a(g1
I-2
tp885
a(g10
I-2
tp886
a(g3
I0
tp887
a(g3
I0
tp888
a(g1
I1
tp889
a(g10
I0
tp890
a(g1
I0
tp891
a(g1
I0
tp892
a(g3
I-1
tp893
a(g10
I0
tp894
a(g10
I-2
tp895
a(g10
I0
tp896
a(g10
I0
tp897
a(g10
I0
tp898
a(g10
I-1
tp899
a(g1
I0
tp900
a(g3
I-2
tp901
a(g3
I-2
tp902
a(g3
I0
tp903
a(g1
I0
tp904
a(g3
I-2
tp905
a(g3
I0
tp906
a(g3
I-2
tp907
a(g10
I0
tp908
a(g3
I1
tp909
a(g3
I1
tp910
a(g3
I0
tp911
a(g10
I1
tp912
a(g3
I-2
tp913
a(g3
I-2
tp914
a(g3
I1
tp915
a(g3
I0
tp916
a(g1
I0
tp917
a(g3
I-1
tp918
a(g1
I1
tp919
a(g10
I0
tp920
a(g3
I0
tp921
a(g3
I0
tp922
a(g1
I0
tp923
a(g3
I1
tp924
a(g1
I0
tp925
a(g1
I1
tp926
a(g3
I-2
tp927
a(g10
I-2
tp928
a(g3
I0
tp929
a(g3
I-4
tp930
a(g10
I-2
tp931
a(g3
I0
tp932
a(g1
I0
tp933
a(g1
I0
tp934
a(g3
I0
tp935
a(g10
I-2
tp936
a(g10
I3
tp937
a(g3
I-2
tp938
a(g10
I0
tp939
a(g10
I1
tp940
a(g1
I-1
tp941
a(g3
I-2
tp942
a(g3
I-2
tp943
a(g10
I0
tp944
a(g10
I0
tp945
a(g3
I0
tp946
a(g3
I0
tp947
a(g3
I0
tp948
a(g10
I0
tp949
a(g10
I1
tp950
a(g10
I0
tp951
a(g3
I-2
tp952
a(g3
I0
tp953
a(g3
I1
tp954
a(g3
I-3
tp955
a(g10
I-2
tp956
a(g10
I0
tp957
a(g3
I-4
tp958
a(g10
I-1
tp959
a(g10
I0
tp960
a(g3
I-3
tp961
a(g3
I-2
tp962
a(g3
I0
tp963
a(g3
I-2
tp964
a(g10
I1
tp965
a(g10
I0
tp966
a(g10
I-1
tp967
a(g3
I0
tp968
a(g1
I0
tp969
a(g1
I0
tp970
a(g3
I-2
tp971
a(g3
I0
tp972
a(g3
I0
tp973
a(g10
I0
tp974
a(g3
I0
tp975
a(g3
I0
tp976
a(g1
I0
tp977
a(g1
I0
tp978
a(g10
I-2
tp979
a(g10
I0
tp980
a(g3
I0
tp981
a(g1
I0
tp982
a(g3
I-2
tp983
a(g3
I-3
tp984
a(g3
I0
tp985
a(g3
I-3
tp986
a(g3
I0
tp987
a(g10
I1
tp988
a(g3
I-4
tp989
a(g1
I0
tp990
a(g1
I-2
tp991
a(g3
I-2
tp992
a(g10
I1
tp993
a(g3
I-2
tp994
a(g3
I-3
tp995
a(g3
I-4
tp996
a(g3
I1
tp997
a(g3
I2
tp998
a(g1
I1
tp999
a(g3
I0
tp1000
a(g10
I-2
tp1001
a(g1
I0
tp1002
a(g3
I-2
tp1003
a(g10
I0
tp1004
a(g10
I0
tp1005
a(g10
I3
tp1006
a(g10
I1
tp1007
a(g10
I0
tp1008
a(g10
I2
tp1009
a(g1
I2
tp1010
a(g10
I0
tp1011
a(g10
I2
tp1012
a(g10
I-1
tp1013
a(g10
I-1
tp1014
a(g10
I2
tp1015
a(g10
I2
tp1016
a(g10
I0
tp1017
a(g10
I0
tp1018
a(g10
I2
tp1019
a(g3
I0
tp1020
a(g3
I1
tp1021
a(g10
I2
tp1022
a(g10
I0
tp1023
a(g3
I2
tp1024
a(g10
I2
tp1025
a(g10
I1
tp1026
a(g10
I2
tp1027
a(g3
I0
tp1028
a(g3
I-2
tp1029
a(g10
I0
tp1030
a(g3
I-2
tp1031
a(g3
I0
tp1032
a(g10
I0
tp1033
a(g3
I-2
tp1034
a(g3
I-4
tp1035
a(g3
I0
tp1036
a(g3
I-1
tp1037
a(g3
I1
tp1038
a(g3
I-1
tp1039
a(g3
I-2
tp1040
a(g1
I0
tp1041
a(g10
I0
tp1042
a(g10
I-2
tp1043
a(g10
I-2
tp1044
a(g1
I0
tp1045
a(g10
I0
tp1046
a(g1
I0
tp1047
a(g1
I0
tp1048
a(g1
I0
tp1049
a(g10
I2
tp1050
a(g3
I0
tp1051
a(g10
I1
tp1052
a(g10
I0
tp1053
a(g3
I0
tp1054
a(g3
I0
tp1055
a(g3
I-1
tp1056
a(g1
I0
tp1057
a(g10
I0
tp1058
a(g3
I-2
tp1059
a(g3
I0
tp1060
a(g1
I0
tp1061
a(g3
I0
tp1062
a(g3
I0
tp1063
a(g1
I0
tp1064
a(g10
I0
tp1065
a(g3
I-2
tp1066
a(g3
I0
tp1067
a(g10
I0
tp1068
a(g10
I1
tp1069
a(g3
I-2
tp1070
a(g1
I0
tp1071
a(g10
I2
tp1072
a(g1
I-1
tp1073
a(g10
I0
tp1074
a(g3
I-3
tp1075
a(g3
I-4
tp1076
a(g3
I2
tp1077
a(g10
I0
tp1078
a(g10
I0
tp1079
a(g10
I1
tp1080
a(g10
I0
tp1081
a(g10
I0
tp1082
a(g10
I3
tp1083
a(g10
I-1
tp1084
a(g10
I0
tp1085
a(g1
I0
tp1086
a(g10
I0
tp1087
a(g10
I0
tp1088
a(g10
I0
tp1089
a(g10
I1
tp1090
a(g10
I0
tp1091
a(g10
I0
tp1092
a(g3
I-1
tp1093
a(g3
I0
tp1094
a(g10
I0
tp1095
a(g10
I0
tp1096
a(g1
I0
tp1097
a(g3
I0
tp1098
a(g1
I0
tp1099
a(g3
I1
tp1100
a(g1
I0
tp1101
a(g3
I0
tp1102
a(g3
I-2
tp1103
a(g10
I0
tp1104
a(g10
I0
tp1105
a(g10
I2
tp1106
a(g3
I0
tp1107
a(g3
I0
tp1108
a(g3
I0
tp1109
a(g3
I0
tp1110
a(g3
I-1
tp1111
a(g3
I-2
tp1112
a(g3
I0
tp1113
a(g10
I0
tp1114
a(g3
I0
tp1115
a(g3
I0
tp1116
a(g3
I0
tp1117
a(g3
I0
tp1118
a(g3
I0
tp1119
a(g3
I0
tp1120
a(g3
I-1
tp1121
a(g3
I-4
tp1122
a(g10
I0
tp1123
a(g10
I0
tp1124
a(g10
I0
tp1125
a(g10
I-2
tp1126
a(g10
I0
tp1127
a(g3
I0
tp1128
a(g1
I0
tp1129
a(g3
I1
tp1130
a(g3
I0
tp1131
a(g10
I0
tp1132
a(g3
I0
tp1133
a(g3
I0
tp1134
a(g1
I0
tp1135
a(g3
I-2
tp1136
a(g3
I0
tp1137
a(g3
I0
tp1138
a(g3
I0
tp1139
a(g3
I0
tp1140
a(g3
I-2
tp1141
a(g10
I-2
tp1142
a(g10
I-2
tp1143
a(g10
I1
tp1144
a(g3
I0
tp1145
a(g3
I0
tp1146
a(g3
I0
tp1147
a(g3
I0
tp1148
a(g10
I0
tp1149
a(g10
I0
tp1150
a(g3
I-1
tp1151
a(g10
I1
tp1152
a(g10
I0
tp1153
a(g10
I1
tp1154
a(g1
I-1
tp1155
a(g10
I0
tp1156
a(g3
I-2
tp1157
a(g1
I0
tp1158
a(g10
I0
tp1159
a(g10
I0
tp1160
a(g1
I-1
tp1161
a(g3
I-3
tp1162
a(g3
I0
tp1163
a(g3
I-2
tp1164
a(g3
I2
tp1165
a(g3
I-1
tp1166
a(g3
I-4
tp1167
a(g3
I-3
tp1168
a(g10
I0
tp1169
a(g10
I-2
tp1170
a(g10
I0
tp1171
a(g10
I2
tp1172
a(g10
I1
tp1173
a(g1
I0
tp1174
a(g3
I0
tp1175
a(g3
I-3
tp1176
a(g3
I0
tp1177
a(g1
I-1
tp1178
a(g3
I-2
tp1179
a(g10
I0
tp1180
a(g3
I0
tp1181
a(g10
I0
tp1182
a(g10
I-2
tp1183
a(g10
I0
tp1184
a(g10
I0
tp1185
a(g3
I1
tp1186
a(g1
I0
tp1187
a(g1
I0
tp1188
a(g3
I-2
tp1189
a(g3
I1
tp1190
a(g3
I-2
tp1191
a(g3
I0
tp1192
a(g10
I-2
tp1193
a(g1
I0
tp1194
a(g1
I0
tp1195
a(g3
I1
tp1196
a(g3
I-2
tp1197
a(g10
I0
tp1198
a(g10
I0
tp1199
a(g3
I0
tp1200
a(g1
I-2
tp1201
a(g3
I0
tp1202
a(g3
I-2
tp1203
a(g3
I-2
tp1204
a(g3
I-1
tp1205
a(g3
I-3
tp1206
a(g3
I0
tp1207
a(g10
I-1
tp1208
a(g3
I-2
tp1209
a(g1
I0
tp1210
a(g1
I0
tp1211
a(g10
I0
tp1212
a(g1
I0
tp1213
a(g10
I0
tp1214
a(g3
I0
tp1215
a(g3
I1
tp1216
a(g10
I1
tp1217
a(g1
I0
tp1218
a(g10
I0
tp1219
a(g3
I-2
tp1220
a(g1
I0
tp1221
a(g1
I0
tp1222
a(g1
I0
tp1223
a(g1
I0
tp1224
a(g3
I0
tp1225
a(g3
I-4
tp1226
a(g3
I0
tp1227
a(g3
I-3
tp1228
a(g10
I1
tp1229
a(g3
I-4
tp1230
a(g3
I-3
tp1231
a(g10
I-1
tp1232
a(g3
I0
tp1233
a(g3
I1
tp1234
a(g3
I-2
tp1235
a(g3
I-1
tp1236
a(g1
I0
tp1237
a(g3
I0
tp1238
a(g3
I-1
tp1239
a(g10
I1
tp1240
a(g10
I-2
tp1241
a(g3
I0
tp1242
a(g10
I0
tp1243
a(g3
I0
tp1244
a(g3
I0
tp1245
a(g3
I-2
tp1246
a(g3
I-1
tp1247
a(g3
I-3
tp1248
a(g3
I-4
tp1249
a(g3
I0
tp1250
a(g3
I-3
tp1251
a(g3
I-2
tp1252
a(g3
I0
tp1253
a(g3
I0
tp1254
a(g3
I0
tp1255
a(g10
I-2
tp1256
a(g3
I-2
tp1257
a(g3
I-1
tp1258
a(g3
I0
tp1259
a(g3
I-1
tp1260
a(g3
I0
tp1261
a(g10
I-1
tp1262
a(g10
I-1
tp1263
a(g3
I-1
tp1264
a(g3
I-1
tp1265
a(g3
I-3
tp1266
a(g1
I0
tp1267
a(g1
I1
tp1268
a(g3
I-2
tp1269
a(g3
I-1
tp1270
a(g1
I0
tp1271
a(g10
I-2
tp1272
a(g3
I0
tp1273
a(g1
I1
tp1274
a(g3
I0
tp1275
a(g3
I0
tp1276
a(g3
I0
tp1277
a(g1
I0
tp1278
a(g1
I0
tp1279
a(g10
I1
tp1280
a(g3
I0
tp1281
a(g10
I2
tp1282
a(g3
I1
tp1283
a(g3
I0
tp1284
a(g3
I-4
tp1285
a(g3
I-1
tp1286
a(g1
I0
tp1287
a(g1
I0
tp1288
a(g3
I0
tp1289
a(g3
I-1
tp1290
a(g3
I0
tp1291
a(g10
I2
tp1292
a(g10
I2
tp1293
a(g1
I0
tp1294
a(g3
I1
tp1295
a(g10
I1
tp1296
a(g10
I1
tp1297
a(g10
I0
tp1298
a(g3
I0
tp1299
a(g3
I0
tp1300
a(g10
I0
tp1301
a(g10
I0
tp1302
a(g1
I0
tp1303
a(g3
I0
tp1304
a(g1
I-2
tp1305
a(g1
I0
tp1306
a(g1
I1
tp1307
a(g3
I-1
tp1308
a(g1
I1
tp1309
a(g1
I0
tp1310
a(g10
I1
tp1311
a(g3
I-2
tp1312
a(g1
I0
tp1313
a(g3
I0
tp1314
a(g3
I0
tp1315
a(g3
I0
tp1316
a(g10
I-2
tp1317
a(g3
I-2
tp1318
a(g10
I3
tp1319
a(g10
I2
tp1320
a(g3
I-3
tp1321
a(g1
I-2
tp1322
a(g10
I0
tp1323
a(g1
I-2
tp1324
a(g1
I0
tp1325
a(g1
I0
tp1326
a(g1
I-2
tp1327
a(g3
I-4
tp1328
a(g3
I-1
tp1329
a(g3
I-3
tp1330
a(g10
I-1
tp1331
a(g10
I2
tp1332
a(g1
I-2
tp1333
a(g10
I0
tp1334
a(g10
I1
tp1335
a(g3
I0
tp1336
a(g3
I0
tp1337
a(g3
I-2
tp1338
a(g10
I0
tp1339
a(g1
I1
tp1340
a(g1
I0
tp1341
a(g3
I-2
tp1342
a(g10
I1
tp1343
a(g10
I-2
tp1344
a(g10
I1
tp1345
a(g1
I0
tp1346
a(g10
I0
tp1347
a(g1
I0
tp1348
a(g1
I0
tp1349
a(g10
I-1
tp1350
a(g10
I0
tp1351
a(g10
I0
tp1352
a(g10
I1
tp1353
a(g3
I0
tp1354
a(g1
I0
tp1355
a(g3
I-4
tp1356
a(g3
I-1
tp1357
a(g3
I-1
tp1358
a(g3
I1
tp1359
a(g10
I0
tp1360
a(g10
I-2
tp1361
a(g10
I-1
tp1362
a(g3
I0
tp1363
a(g1
I0
tp1364
a(g1
I0
tp1365
a(g3
I0
tp1366
a(g1
I0
tp1367
a(g10
I0
tp1368
a(g10
I0
tp1369
a(g10
I0
tp1370
a(g3
I0
tp1371
a(g3
I0
tp1372
a(g10
I0
tp1373
a(g10
I-2
tp1374
a(g3
I-2
tp1375
a(g3
I-2
tp1376
a(g3
I-2
tp1377
a(g10
I-1
tp1378
a(g1
I0
tp1379
a(g3
I0
tp1380
a(g3
I-2
tp1381
a(g10
I1
tp1382
a(g3
I-4
tp1383
a(g10
I0
tp1384
a(g3
I-1
tp1385
a(g10
I0
tp1386
a(g3
I-2
tp1387
a(g3
I1
tp1388
a(g3
I0
tp1389
a(g1
I0
tp1390
a(g3
I-3
tp1391
a(g3
I-4
tp1392
a(g3
I0
tp1393
a(g10
I1
tp1394
a(g1
I1
tp1395
a(g3
I-2
tp1396
a(g1
I-2
tp1397
a(g10
I0
tp1398
a(g1
I1
tp1399
a(g10
I0
tp1400
a(g10
I1
tp1401
a(g10
I0
tp1402
a(g10
I1
tp1403
a(g1
I1
tp1404
a(g10
I1
tp1405
a(g10
I1
tp1406
a(g3
I1
tp1407
a(g1
I-2
tp1408
a(g10
I0
tp1409
a(g3
I-1
tp1410
a(g1
I0
tp1411
a(g3
I0
tp1412
a(g3
I-1
tp1413
a(g3
I0
tp1414
a(g3
I-1
tp1415
a(g3
I-4
tp1416
a(g3
I0
tp1417
a(g3
I0
tp1418
a(g10
I0
tp1419
a(g10
I0
tp1420
a(g10
I0
tp1421
a(g1
I0
tp1422
a(g10
I2
tp1423
a(g10
I0
tp1424
a(g3
I0
tp1425
a(g3
I0
tp1426
a(g3
I0
tp1427
a(g3
I0
tp1428
a(g3
I0
tp1429
a(g10
I1
tp1430
a(g3
I-3
tp1431
a(g10
I0
tp1432
a(g3
I0
tp1433
a(g3
I-2
tp1434
a(g3
I0
tp1435
a(g3
I0
tp1436
a(g3
I0
tp1437
a(g3
I0
tp1438
a(g3
I-2
tp1439
a(g10
I0
tp1440
a(g3
I-1
tp1441
a(g3
I-2
tp1442
a(g3
I0
tp1443
a(g3
I0
tp1444
a(g1
I0
tp1445
a(g1
I-1
tp1446
a(g3
I-1
tp1447
a(g3
I-3
tp1448
a(g3
I0
tp1449
a(g10
I2
tp1450
a(g3
I0
tp1451
a(g10
I0
tp1452
a(g10
I0
tp1453
a(g3
I-1
tp1454
a(g3
I0
tp1455
a(g3
I-4
tp1456
a(g3
I0
tp1457
a(g3
I0
tp1458
a(g3
I-1
tp1459
a(g3
I0
tp1460
a(g1
I1
tp1461
a(g3
I0
tp1462
a(g3
I-2
tp1463
a(g3
I0
tp1464
a(g1
I0
tp1465
a(g1
I0
tp1466
a(g1
I0
tp1467
a(g3
I0
tp1468
a(g1
I0
tp1469
a(g1
I0
tp1470
a(g3
I0
tp1471
a(g3
I0
tp1472
a(g3
I1
tp1473
a(g3
I1
tp1474
a(g3
I-3
tp1475
a(g3
I-3
tp1476
a(g3
I0
tp1477
a(g3
I0
tp1478
a(g10
I0
tp1479
a(g3
I0
tp1480
a(g1
I0
tp1481
a(g3
I0
tp1482
a(g3
I0
tp1483
a(g3
I-3
tp1484
a(g10
I2
tp1485
a(g3
I0
tp1486
a(g3
I-2
tp1487
a(g3
I1
tp1488
a(g3
I-1
tp1489
a(g3
I0
tp1490
a(g10
I1
tp1491
a(g1
I0
tp1492
a(g3
I0
tp1493
a(g3
I0
tp1494
a(g3
I-2
tp1495
a(g3
I0
tp1496
a(g3
I-2
tp1497
a(g1
I0
tp1498
a(g3
I0
tp1499
a(g10
I0
tp1500
a(g3
I-2
tp1501
a(g10
I0
tp1502
a(g1
I0
tp1503
a(g3
I-1
tp1504
a(g3
I-2
tp1505
a(g3
I-2
tp1506
a(g3
I-3
tp1507
a(g1
I-2
tp1508
a(g10
I0
tp1509
a(g3
I0
tp1510
a(g1
I0
tp1511
a(g1
I-2
tp1512
a(g10
I1
tp1513
a(g10
I0
tp1514
a(g3
I-2
tp1515
a(g3
I0
tp1516
a(g1
I0
tp1517
a(g3
I-3
tp1518
a(g3
I0
tp1519
a(g10
I0
tp1520
a(g10
I0
tp1521
a(g3
I0
tp1522
a(g3
I0
tp1523
a(g10
I0
tp1524
a(g3
I0
tp1525
a(g3
I-1
tp1526
a(g3
I0
tp1527
a(g3
I0
tp1528
a(g3
I0
tp1529
a(g3
I-1
tp1530
a(g3
I0
tp1531
a(g1
I0
tp1532
a(g10
I1
tp1533
a(g3
I0
tp1534
a(g1
I0
tp1535
a(g3
I0
tp1536
a(g1
I0
tp1537
a(g10
I-1
tp1538
a(g3
I0
tp1539
a(g3
I0
tp1540
a(g3
I-1
tp1541
a(g3
I1
tp1542
a(g1
I0
tp1543
a(g10
I1
tp1544
a(g10
I0
tp1545
a(g3
I-3
tp1546
a(g3
I2
tp1547
a(g10
I1
tp1548
a(g3
I0
tp1549
a(g3
I-2
tp1550
a(g10
I0
tp1551
a(g10
I0
tp1552
a(g3
I0
tp1553
a(g3
I0
tp1554
a(g3
I1
tp1555
a(g3
I-1
tp1556
a(g10
I0
tp1557
a(g1
I0
tp1558
a(g3
I0
tp1559
a(g10
I0
tp1560
a(g10
I2
tp1561
a(g10
I-1
tp1562
a(g3
I-2
tp1563
a(g3
I-4
tp1564
a(g10
I0
tp1565
a(g3
I-1
tp1566
a(g3
I0
tp1567
a(g1
I0
tp1568
a(g10
I0
tp1569
a(g10
I1
tp1570
a(g10
I-1
tp1571
a(g1
I0
tp1572
a(g3
I0
tp1573
a(g3
I0
tp1574
a(g3
I-2
tp1575
a(g3
I0
tp1576
a(g10
I0
tp1577
a(g10
I0
tp1578
a(g10
I1
tp1579
a(g3
I0
tp1580
a(g3
I-1
tp1581
a(g3
I0
tp1582
a(g3
I0
tp1583
a(g3
I-1
tp1584
a(g1
I1
tp1585
a(g1
I0
tp1586
a(g1
I0
tp1587
a(g10
I0
tp1588
a(g10
I1
tp1589
a(g1
I0
tp1590
a(g10
I0
tp1591
a(g10
I-2
tp1592
a(g10
I2
tp1593
a(g10
I0
tp1594
a(g3
I-1
tp1595
a(g1
I0
tp1596
a(g3
I0
tp1597
a(g3
I-1
tp1598
a(g3
I1
tp1599
a(g10
I0
tp1600
a(g1
I0
tp1601
a(g10
I-2
tp1602
a(g10
I0
tp1603
a(g10
I0
tp1604
a(g3
I1
tp1605
a(g1
I0
tp1606
a(g3
I0
tp1607
a(g1
I1
tp1608
a(g1
I0
tp1609
a(g10
I0
tp1610
a(g10
I-1
tp1611
a(g10
I0
tp1612
a(g10
I0
tp1613
a(g10
I0
tp1614
a(g10
I1
tp1615
a(g10
I0
tp1616
a(g10
I-1
tp1617
a(g10
I3
tp1618
a(g1
I0
tp1619
a(g10
I3
tp1620
a(g1
I0
tp1621
a(g10
I-2
tp1622
a(g1
I0
tp1623
a(g1
I0
tp1624
a(g1
I0
tp1625
a(g3
I0
tp1626
a(g1
I0
tp1627
a(g10
I2
tp1628
a(g3
I1
tp1629
a(g10
I0
tp1630
a(g3
I0
tp1631
a(g3
I-2
tp1632
a(g10
I0
tp1633
a(g1
I0
tp1634
a(g10
I0
tp1635
a(g10
I0
tp1636
a(g1
I0
tp1637
a(g10
I0
tp1638
a(g10
I0
tp1639
a(g10
I0
tp1640
a(g10
I1
tp1641
a(g10
I2
tp1642
a(g3
I-1
tp1643
a(g1
I-1
tp1644
a(g10
I0
tp1645
a(g1
I0
tp1646
a(g10
I0
tp1647
a(g3
I-2
tp1648
a(g3
I-2
tp1649
a(g3
I1
tp1650
a(g3
I-1
tp1651
a(g3
I0
tp1652
a(g10
I0
tp1653
a(g3
I0
tp1654
a(g3
I0
tp1655
a(g1
I-2
tp1656
a(g3
I-2
tp1657
a(g3
I-2
tp1658
a(g3
I-1
tp1659
a(g3
I-4
tp1660
a(g3
I0
tp1661
a(g3
I2
tp1662
a(g10
I1
tp1663
a(g1
I0
tp1664
a(g3
I-2
tp1665
a(g3
I-1
tp1666
a(g3
I0
tp1667
a(g10
I0
tp1668
a(g10
I0
tp1669
a(g3
I-1
tp1670
a(g10
I2
tp1671
a(g3
I0
tp1672
a(g3
I-2
tp1673
a(g3
I0
tp1674
a(g3
I-2
tp1675
a(g10
I-2
tp1676
a(g3
I-2
tp1677
a(g3
I-2
tp1678
a(g1
I0
tp1679
a(g1
I1
tp1680
a(g10
I0
tp1681
a(g10
I-2
tp1682
a(g10
I0
tp1683
a(g10
I0
tp1684
a(g3
I-4
tp1685
a(g3
I-4
tp1686
a(g10
I0
tp1687
a(g3
I-2
tp1688
a(g10
I0
tp1689
a(g10
I0
tp1690
a(g10
I0
tp1691
a(g1
I0
tp1692
a(g3
I0
tp1693
a(g3
I0
tp1694
a(g1
I0
tp1695
a(g1
I0
tp1696
a(g3
I-2
tp1697
a(g3
I0
tp1698
a(g3
I-3
tp1699
a(g3
I-4
tp1700
a(g1
I0
tp1701
a(g10
I0
tp1702
a(g3
I-2
tp1703
a(g3
I1
tp1704
a(g3
I0
tp1705
a(g1
I-1
tp1706
a(g3
I-3
tp1707
a(g10
I0
tp1708
a(g1
I0
tp1709
a(g3
I-2
tp1710
a(g3
I0
tp1711
a(g3
I0
tp1712
a(g10
I-2
tp1713
a(g10
I1
tp1714
a(g10
I0
tp1715
a(g10
I0
tp1716
a(g3
I-4
tp1717
a(g3
I-4
tp1718
a(g3
I-4
tp1719
a(g3
I-4
tp1720
a(g10
I0
tp1721
a(g3
I0
tp1722
a(g3
I-4
tp1723
a(g1
I0
tp1724
a(g10
I0
tp1725
a(g10
I1
tp1726
a(g1
I0
tp1727
a(g3
I-1
tp1728
a(g3
I0
tp1729
a(g3
I-1
tp1730
a(g3
I-2
tp1731
a(g3
I0
tp1732
a(g1
I0
tp1733
a(g3
I1
tp1734
a(g10
I-1
tp1735
a(g1
I0
tp1736
a(g3
I0
tp1737
a(g1
I0
tp1738
a(g3
I-4
tp1739
a(g10
I1
tp1740
a(g3
I-1
tp1741
a(g3
I-2
tp1742
a(g3
I0
tp1743
a(g3
I-3
tp1744
a(g3
I0
tp1745
a(g3
I-1
tp1746
a(g10
I3
tp1747
a(g10
I0
tp1748
a(g10
I0
tp1749
a(g10
I0
tp1750
a(g10
I0
tp1751
a(g3
I-4
tp1752
a(g3
I-4
tp1753
a(g3
I0
tp1754
a(g3
I1
tp1755
a(g3
I0
tp1756
a(g1
I0
tp1757
a(g10
I1
tp1758
a(g3
I-1
tp1759
a(g3
I-2
tp1760
a(g3
I-2
tp1761
a(g10
I-1
tp1762
a(g10
I-1
tp1763
a(g10
I0
tp1764
a(g10
I1
tp1765
a(g10
I-2
tp1766
a(g10
I-2
tp1767
a(g3
I1
tp1768
a(g1
I0
tp1769
a(g1
I1
tp1770
a(g3
I1
tp1771
a(g10
I0
tp1772
a(g1
I-1
tp1773
a(g3
I-2
tp1774
a(g10
I-1
tp1775
a(g10
I0
tp1776
a(g10
I0
tp1777
a(g1
I-2
tp1778
a(g10
I0
tp1779
a(g10
I0
tp1780
a(g1
I0
tp1781
a(g1
I1
tp1782
a(g3
I0
tp1783
a(g10
I0
tp1784
a(g10
I-1
tp1785
a(g10
I1
tp1786
a(g3
I-3
tp1787
a(g1
I0
tp1788
a(g3
I-2
tp1789
a(g10
I0
tp1790
a(g10
I-2
tp1791
a(g3
I-1
tp1792
a(g10
I-2
tp1793
a(g10
I-1
tp1794
a(g10
I2
tp1795
a(g10
I-1
tp1796
a(g10
I1
tp1797
a(g10
I-2
tp1798
a(g10
I2
tp1799
a(g10
I2
tp1800
a(g10
I1
tp1801
a(g10
I0
tp1802
a(g10
I0
tp1803
a(g10
I2
tp1804
a(g10
I2
tp1805
a(g10
I0
tp1806
a(g10
I1
tp1807
a(g10
I0
tp1808
a(g3
I-1
tp1809
a(g3
I-4
tp1810
a(g3
I-4
tp1811
a(g3
I-2
tp1812
a(g3
I0
tp1813
a(g3
I-2
tp1814
a(g10
I-1
tp1815
a(g1
I1
tp1816
a(g3
I0
tp1817
a(g1
I1
tp1818
a(g3
I-2
tp1819
a(g3
I0
tp1820
a(g3
I0
tp1821
a(g3
I0
tp1822
a(g1
I-2
tp1823
a(g10
I0
tp1824
a(g10
I-2
tp1825
a(g10
I-2
tp1826
a(g1
I0
tp1827
a(g1
I-2
tp1828
a(g1
I0
tp1829
a(g10
I2
tp1830
a(g10
I0
tp1831
a(g1
I1
tp1832
a(g3
I1
tp1833
a(g3
I1
tp1834
a(g10
I0
tp1835
a(g10
I0
tp1836
a(g1
I0
tp1837
a(g10
I0
tp1838
a(g10
I-1
tp1839
a(g3
I1
tp1840
a(g3
I0
tp1841
a(g3
I-3
tp1842
a(g10
I0
tp1843
a(g10
I2
tp1844
a(g1
I0
tp1845
a(g1
I0
tp1846
a(g3
I0
tp1847
a(g1
I0
tp1848
a(g10
I0
tp1849
a(g10
I-1
tp1850
a(g3
I0
tp1851
a(g3
I0
tp1852
a(g3
I-2
tp1853
a(g1
I0
tp1854
a(g3
I0
tp1855
a(g3
I0
tp1856
a(g3
I0
tp1857
a(g3
I-3
tp1858
a(g3
I0
tp1859
a(g3
I-3
tp1860
a(g3
I0
tp1861
a(g10
I0
tp1862
a(g10
I-2
tp1863
a(g10
I2
tp1864
a(g3
I-1
tp1865
a(g1
I-2
tp1866
a(g1
I0
tp1867
a(g10
I0
tp1868
a(g3
I1
tp1869
a(g10
I1
tp1870
a(g1
I1
tp1871
a(g1
I1
tp1872
a(g10
I0
tp1873
a(g10
I1
tp1874
a(g10
I1
tp1875
a(g3
I0
tp1876
a(g3
I0
tp1877
a(g3
I-1
tp1878
a(g3
I-1
tp1879
a(g1
I0
tp1880
a(g1
I0
tp1881
a(g1
I1
tp1882
a(g3
I-1
tp1883
a(g10
I-1
tp1884
a(g1
I0
tp1885
a(g3
I0
tp1886
a(g3
I0
tp1887
a(g3
I0
tp1888
a(g1
I0
tp1889
a(g1
I-1
tp1890
a(g3
I-1
tp1891
a(g3
I-2
tp1892
a(g3
I-2
tp1893
a(g3
I-2
tp1894
a(g3
I-2
tp1895
a(g3
I0
tp1896
a(g3
I-2
tp1897
a(g1
I-2
tp1898
a(g10
I-1
tp1899
a(g1
I1
tp1900
a(g10
I1
tp1901
a(g10
I1
tp1902
a(g1
I0
tp1903
a(g10
I0
tp1904
a(g3
I0
tp1905
a(g1
I0
tp1906
a(g1
I0
tp1907
a(g10
I1
tp1908
a(g3
I0
tp1909
a(g3
I0
tp1910
a(g10
I1
tp1911
a(g1
I1
tp1912
a(g3
I-3
tp1913
a(g3
I0
tp1914
a(g3
I1
tp1915
a(g3
I0
tp1916
a(g1
I0
tp1917
a(g3
I-1
tp1918
a(g3
I0
tp1919
a(g3
I-2
tp1920
a(g10
I-4
tp1921
a(g3
I-2
tp1922
a(g3
I-2
tp1923
a(g1
I0
tp1924
a(g1
I0
tp1925
a(g3
I-3
tp1926
a(g3
I-2
tp1927
a(g3
I-1
tp1928
a(g10
I0
tp1929
a(g1
I0
tp1930
a(g3
I0
tp1931
a(g1
I2
tp1932
a(g1
I0
tp1933
a(g3
I-4
tp1934
a(g3
I0
tp1935
a(g1
I0
tp1936
a(g10
I1
tp1937
a(g1
I0
tp1938
a(g3
I0
tp1939
a(g10
I0
tp1940
a(g3
I-3
tp1941
a(g1
I1
tp1942
a(g1
I-3
tp1943
a(g1
I0
tp1944
a(g1
I0
tp1945
a(g3
I0
tp1946
a(g3
I0
tp1947
a(g3
I0
tp1948
a(g10
I0
tp1949
a(g1
I0
tp1950
a(g3
I-4
tp1951
a(g3
I-2
tp1952
a(g3
I-1
tp1953
a(g3
I-2
tp1954
a(g3
I-1
tp1955
a(g1
I1
tp1956
a(g3
I-2
tp1957
a(g3
I0
tp1958
a(g1
I0
tp1959
a(g3
I-2
tp1960
a(g3
I-1
tp1961
a(g3
I-2
tp1962
a(g1
I0
tp1963
a(g3
I0
tp1964
a(g10
I0
tp1965
a(g10
I1
tp1966
a(g3
I-2
tp1967
a(g3
I-2
tp1968
a(g1
I0
tp1969
a(g3
I-3
tp1970
a(g3
I0
tp1971
a(g3
I-1
tp1972
a(g3
I-2
tp1973
a(g1
I-2
tp1974
a(g3
I-1
tp1975
a(g3
I0
tp1976
a(g3
I-2
tp1977
a(g3
I-2
tp1978
a(g10
I-1
tp1979
a(g3
I0
tp1980
a(g3
I0
tp1981
a(g10
I0
tp1982
a(g3
I0
tp1983
a(g3
I-1
tp1984
a(g3
I-3
tp1985
a(g3
I-1
tp1986
a(g3
I1
tp1987
a(g10
I-1
tp1988
a(g10
I0
tp1989
a(g3
I-1
tp1990
a(g1
I1
tp1991
a(g3
I0
tp1992
a(g1
I0
tp1993
a(g1
I0
tp1994
a(g10
I3
tp1995
a(g3
I1
tp1996
a(g3
I0
tp1997
a(g3
I0
tp1998
a(g3
I-3
tp1999
a(g3
I0
tp2000
a(g10
I0
tp2001
a(g1
I-1
tp2002
a(g3
I0
tp2003
a(g3
I-2
tp2004
a(g3
I0
tp2005
a(g3
I2
tp2006
a(g3
I0
tp2007
a(g3
I0
tp2008
a(g10
I0
tp2009
a(g10
I0
tp2010
a(g1
I0
tp2011
a(g3
I0
tp2012
a(g3
I1
tp2013
a(g3
I2
tp2014
a(g3
I0
tp2015
a(g3
I0
tp2016
a(g3
I0
tp2017
a(g3
I-3
tp2018
a(g3
I0
tp2019
a(g3
I0
tp2020
a(g3
I-2
tp2021
a(g3
I-4
tp2022
a(g3
I0
tp2023
a(g10
I1
tp2024
a(g1
I0
tp2025
a(g3
I-1
tp2026
a(g1
I0
tp2027
a(g3
I-1
tp2028
a(g3
I-1
tp2029
a(g10
I1
tp2030
a(g3
I0
tp2031
a(g3
I-2
tp2032
a(g10
I0
tp2033
a(g1
I0
tp2034
a(g1
I-2
tp2035
a(g1
I-2
tp2036
a(g3
I0
tp2037
a(g1
I0
tp2038
a(g3
I0
tp2039
a(g1
I0
tp2040
a(g3
I0
tp2041
a(g3
I-2
tp2042
a(g3
I0
tp2043
a(g3
I-1
tp2044
a(g3
I1
tp2045
a(g3
I-3
tp2046
a(g3
I-2
tp2047
a(g10
I1
tp2048
a(g10
I0
tp2049
a(g10
I0
tp2050
a(g3
I0
tp2051
a(g3
I0
tp2052
a(g10
I0
tp2053
a(g1
I-2
tp2054
a(g3
I1
tp2055
a(g3
I-1
tp2056
a(g3
I1
tp2057
a(g3
I0
tp2058
a(g10
I0
tp2059
a(g10
I0
tp2060
a(g3
I0
tp2061
a(g3
I-2
tp2062
a(g3
I-2
tp2063
a(g1
I0
tp2064
a(g1
I0
tp2065
a(g1
I-2
tp2066
a(g1
I0
tp2067
a(g10
I0
tp2068
a(g10
I0
tp2069
a(g10
I0
tp2070
a(g3
I0
tp2071
a(g3
I0
tp2072
a(g1
I0
tp2073
a(g1
I0
tp2074
a(g1
I0
tp2075
a(g10
I-2
tp2076
a(g10
I0
tp2077
a(g3
I0
tp2078
a(g3
I-3
tp2079
a(g10
I1
tp2080
a(g10
I0
tp2081
a(g3
I0
tp2082
a(g1
I-2
tp2083
a(g3
I1
tp2084
a(g10
I0
tp2085
a(g10
I1
tp2086
a(g3
I-1
tp2087
a(g1
I1
tp2088
a(g3
I-3
tp2089
a(g3
I-3
tp2090
a(g10
I1
tp2091
a(g10
I-2
tp2092
a(g10
I-1
tp2093
a(g10
I0
tp2094
a(g3
I0
tp2095
a(g3
I0
tp2096
a(g3
I1
tp2097
a(g3
I-2
tp2098
a(g3
I-2
tp2099
a(g3
I-3
tp2100
a(g3
I-2
tp2101
a(g3
I1
tp2102
a(g3
I-2
tp2103
a(g3
I0
tp2104
a(g3
I-2
tp2105
a(g3
I0
tp2106
a(g3
I0
tp2107
a(g1
I0
tp2108
a(g10
I0
tp2109
a(g3
I-1
tp2110
a(g3
I-2
tp2111
a(g3
I0
tp2112
a(g3
I2
tp2113
a(g3
I-2
tp2114
a(g3
I0
tp2115
a(g1
I0
tp2116
a(g10
I0
tp2117
a(g1
I0
tp2118
a(g1
I0
tp2119
a(g3
I0
tp2120
a(g3
I0
tp2121
a(g1
I0
tp2122
a(g10
I-1
tp2123
a(g10
I-1
tp2124
a(g3
I-1
tp2125
a(g10
I0
tp2126
a(g1
I2
tp2127
a(g10
I1
tp2128
a(g10
I-2
tp2129
a(g10
I0
tp2130
a(g10
I0
tp2131
a(g10
I0
tp2132
a(g1
I0
tp2133
a(g10
I0
tp2134
a(g1
I0
tp2135
a(g1
I-2
tp2136
a(g1
I0
tp2137
a(g3
I-2
tp2138
a(g3
I-2
tp2139
a(g3
I-2
tp2140
a(g1
I0
tp2141
a(g1
I0
tp2142
a(g1
I0
tp2143
a(g1
I0
tp2144
a(g3
I-2
tp2145
a(g3
I-1
tp2146
a(g3
I0
tp2147
a(g3
I-4
tp2148
a(g3
I-2
tp2149
a(g10
I1
tp2150
a(g10
I1
tp2151
a(g3
I-4
tp2152
a(g3
I0
tp2153
a(g10
I0
tp2154
a(g10
I0
tp2155
a(g10
I0
tp2156
a(g10
I3
tp2157
a(g10
I0
tp2158
a(g10
I-2
tp2159
a(g1
I0
tp2160
a(g3
I-2
tp2161
a(g10
I-2
tp2162
a(g3
I0
tp2163
a(g3
I0
tp2164
a(g3
I-2
tp2165
a(g3
I0
tp2166
a(g1
I0
tp2167
a(g1
I1
tp2168
a(g10
I0
tp2169
a(g1
I0
tp2170
a(g1
I0
tp2171
a(g1
I0
tp2172
a(g1
I1
tp2173
a(g3
I-1
tp2174
a(g1
I0
tp2175
a(g10
I4
tp2176
a(g1
I0
tp2177
a(g3
I0
tp2178
a(g3
I0
tp2179
a(g3
I-2
tp2180
a(g10
I0
tp2181
a(g3
I0
tp2182
a(g3
I-1
tp2183
a(g10
I1
tp2184
a(g3
I-4
tp2185
a(g3
I-4
tp2186
a(g1
I0
tp2187
a(g3
I0
tp2188
a(g1
I1
tp2189
a(g10
I2
tp2190
a(g1
I0
tp2191
a(g3
I-2
tp2192
a(g10
I0
tp2193
a(g1
I0
tp2194
a(g3
I-1
tp2195
a(g1
I0
tp2196
a(g1
I0
tp2197
a(g3
I0
tp2198
a(g3
I-1
tp2199
a(g3
I0
tp2200
a(g3
I-1
tp2201
a(g10
I-2
tp2202
a(g3
I0
tp2203
a(g10
I1
tp2204
a(g3
I0
tp2205
a(g10
I2
tp2206
a(g10
I0
tp2207
a(g1
I0
tp2208
a(g3
I0
tp2209
a(g1
I-2
tp2210
a(g3
I0
tp2211
a(g10
I0
tp2212
a(g3
I0
tp2213
a(g3
I-1
tp2214
a(g3
I0
tp2215
a(g3
I0
tp2216
a(g3
I-1
tp2217
a(g3
I-4
tp2218
a(g3
I-3
tp2219
a(g10
I1
tp2220
a(g10
I-1
tp2221
a(g1
I0
tp2222
a(g1
I0
tp2223
a(g1
I0
tp2224
a(g10
I0
tp2225
a(g1
I0
tp2226
a(g10
I0
tp2227
a(g10
I4
tp2228
a(g3
I0
tp2229
a(g3
I-3
tp2230
a(g10
I0
tp2231
a(g3
I0
tp2232
a(g10
I0
tp2233
a(g1
I0
tp2234
a(g1
I0
tp2235
a(g3
I-4
tp2236
a(g3
I0
tp2237
a(g3
I-2
tp2238
a(g3
I-1
tp2239
a(g1
I0
tp2240
a(g3
I0
tp2241
a(g10
I0
tp2242
a(g1
I0
tp2243
a(g1
I0
tp2244
a(g10
I2
tp2245
a(g10
I2
tp2246
a(g3
I-1
tp2247
a(g10
I1
tp2248
a(g1
I0
tp2249
a(g3
I0
tp2250
a(g3
I-2
tp2251
a(g3
I-1
tp2252
a(g1
I-1
tp2253
a(g10
I0
tp2254
a(g10
I0
tp2255
a(g1
I-2
tp2256
a(g3
I0
tp2257
a(g1
I0
tp2258
a(g10
I2
tp2259
a(g3
I-2
tp2260
a(g3
I-2
tp2261
a(g3
I-2
tp2262
a(g3
I-1
tp2263
a(g1
I-1
tp2264
a(g1
I0
tp2265
a(g1
I-1
tp2266
a(g1
I0
tp2267
a(g1
I0
tp2268
a(g10
I3
tp2269
a(g3
I-1
tp2270
a(g3
I0
tp2271
a(g10
I0
tp2272
a(g3
I-2
tp2273
a(g3
I0
tp2274
a(g3
I0
tp2275
a(g3
I-1
tp2276
a(g3
I-3
tp2277
a(g3
I0
tp2278
a(g3
I1
tp2279
a(g3
I0
tp2280
a(g3
I-3
tp2281
a(g3
I0
tp2282
a(g3
I-3
tp2283
a(g3
I-1
tp2284
a(g3
I-1
tp2285
a(g3
I0
tp2286
a(g3
I0
tp2287
a(g3
I1
tp2288
a(g3
I1
tp2289
a(g3
I-4
tp2290
a(g1
I0
tp2291
a(g10
I1
tp2292
a(g10
I-2
tp2293
a(g10
I1
tp2294
a(g3
I-2
tp2295
a(g1
I0
tp2296
a(g1
I2
tp2297
a(g10
I1
tp2298
a(g3
I-3
tp2299
a(g1
I0
tp2300
a(g1
I1
tp2301
a(g3
I-1
tp2302
a(g1
I0
tp2303
a(g10
I-1
tp2304
a(g10
I-2
tp2305
a(g1
I0
tp2306
a(g3
I1
tp2307
a(g3
I1
tp2308
a(g3
I0
tp2309
a(g3
I-2
tp2310
a(g3
I-2
tp2311
a(g3
I0
tp2312
a(g10
I0
tp2313
a(g10
I0
tp2314
a(g3
I-1
tp2315
a(g3
I0
tp2316
a(g3
I-3
tp2317
a(g10
I-2
tp2318
a(g3
I0
tp2319
a(g1
I0
tp2320
a(g10
I1
tp2321
a(g1
I1
tp2322
a(g10
I0
tp2323
a(g3
I0
tp2324
a(g3
I0
tp2325
a(g10
I0
tp2326
a(g3
I0
tp2327
a(g10
I1
tp2328
a(g10
I0
tp2329
a(g3
I-3
tp2330
a(g3
I3
tp2331
a(g10
I1
tp2332
a(g3
I0
tp2333
a(g1
I1
tp2334
a(g10
I0
tp2335
a(g3
I0
tp2336
a(g3
I-1
tp2337
a(g1
I0
tp2338
a(g10
I4
tp2339
a(g3
I0
tp2340
a(g10
I-1
tp2341
a(g1
I0
tp2342
a(g10
I2
tp2343
a(g3
I0
tp2344
a(g3
I0
tp2345
a(g3
I0
tp2346
a(g3
I0
tp2347
a(g10
I-1
tp2348
a(g10
I0
tp2349
a(g3
I0
tp2350
a(g3
I0
tp2351
a(g3
I-2
tp2352
a(g3
I-1
tp2353
a(g3
I-2
tp2354
a(g3
I0
tp2355
a(g3
I-3
tp2356
a(g1
I0
tp2357
a(g3
I1
tp2358
a(g3
I-1
tp2359
a(g10
I2
tp2360
a(g10
I1
tp2361
a(g3
I0
tp2362
a(g10
I1
tp2363
a(g10
I1
tp2364
a(g1
I1
tp2365
a(g1
I1
tp2366
a(g3
I0
tp2367
a(g1
I0
tp2368
a(g3
I0
tp2369
a(g3
I0
tp2370
a(g10
I0
tp2371
a(g3
I0
tp2372
a(g3
I0
tp2373
a(g3
I0
tp2374
a(g3
I2
tp2375
a(g1
I-2
tp2376
a(g10
I0
tp2377
a(g10
I-2
tp2378
a(g10
I3
tp2379
a(g1
I0
tp2380
a(g10
I-2
tp2381
a(g3
I1
tp2382
a(g3
I1
tp2383
a(g10
I0
tp2384
a(g10
I2
tp2385
a(g1
I0
tp2386
a(g3
I-3
tp2387
a(g3
I-4
tp2388
a(g3
I-2
tp2389
a(g3
I-2
tp2390
a(g3
I-1
tp2391
a(g3
I-3
tp2392
a(g3
I0
tp2393
a(g1
I0
tp2394
a(g1
I-3
tp2395
a(g1
I-3
tp2396
a(g10
I2
tp2397
a(g3
I-1
tp2398
a(g1
I0
tp2399
a(g3
I0
tp2400
a(g3
I-3
tp2401
a(g1
I0
tp2402
a(g1
I-2
tp2403
a(g1
I0
tp2404
a(g10
I0
tp2405
a(g3
I0
tp2406
a(g3
I1
tp2407
a(g3
I1
tp2408
a(g3
I0
tp2409
a(g3
I0
tp2410
a(g3
I0
tp2411
a(g3
I0
tp2412
a(g3
I0
tp2413
a(g10
I4
tp2414
a(g3
I-2
tp2415
a(g3
I0
tp2416
a(g10
I1
tp2417
a(g3
I1
tp2418
a(g3
I0
tp2419
a(g10
I0
tp2420
a(g1
I1
tp2421
a(g3
I-3
tp2422
a(g1
I0
tp2423
a(g3
I-2
tp2424
a(g3
I-2
tp2425
a(g1
I0
tp2426
a(g10
I-3
tp2427
a(g3
I-3
tp2428
a(g3
I0
tp2429
a(g1
I0
tp2430
a(g1
I-2
tp2431
a(g3
I0
tp2432
a(g3
I-2
tp2433
a(g10
I-2
tp2434
a(g10
I0
tp2435
a(g10
I0
tp2436
a(g10
I0
tp2437
a(g3
I-2
tp2438
a(g3
I-1
tp2439
a(g3
I1
tp2440
a(g3
I0
tp2441
a(g1
I1
tp2442
a(g3
I-2
tp2443
a(g3
I-4
tp2444
a(g3
I0
tp2445
a(g1
I0
tp2446
a(g1
I0
tp2447
a(g3
I0
tp2448
a(g3
I0
tp2449
a(g1
I0
tp2450
a(g3
I0
tp2451
a(g3
I2
tp2452
a(g10
I0
tp2453
a(g1
I0
tp2454
a(g3
I0
tp2455
a(g10
I1
tp2456
a(g3
I-3
tp2457
a(g1
I0
tp2458
a(g10
I0
tp2459
a(g10
I1
tp2460
a(g10
I0
tp2461
a(g1
I-2
tp2462
a(g1
I-1
tp2463
a(g3
I0
tp2464
a(g1
I-3
tp2465
a(g10
I-1
tp2466
a(g3
I0
tp2467
a(g3
I-2
tp2468
a(g3
I0
tp2469
a(g3
I0
tp2470
a(g3
I-4
tp2471
a(g10
I-1
tp2472
a(g3
I0
tp2473
a(g3
I0
tp2474
a(g1
I0
tp2475
a(g3
I0
tp2476
a(g10
I-1
tp2477
a(g3
I0
tp2478
a(g1
I-1
tp2479
a(g3
I0
tp2480
a(g1
I-2
tp2481
a(g3
I0
tp2482
a(g3
I-3
tp2483
a(g3
I0
tp2484
a(g1
I0
tp2485
a(g1
I-2
tp2486
a(g10
I0
tp2487
a(g3
I0
tp2488
a(g1
I0
tp2489
a(g3
I0
tp2490
a(g3
I0
tp2491
a(g10
I0
tp2492
a(g10
I-2
tp2493
a(g1
I0
tp2494
a(g3
I-1
tp2495
a(g3
I-2
tp2496
a(g3
I-3
tp2497
a(g1
I0
tp2498
a(g10
I0
tp2499
a(g3
I0
tp2500
a(g10
I0
tp2501
a(g10
I-2
tp2502
a(g1
I0
tp2503
a(g1
I0
tp2504
a(g1
I-1
tp2505
a(g1
I0
tp2506
a(g3
I-1
tp2507
a(g3
I0
tp2508
a(g3
I-3
tp2509
a(g3
I0
tp2510
a(g10
I0
tp2511
a(g10
I0
tp2512
a(g3
I-3
tp2513
a(g3
I-4
tp2514
a(g3
I0
tp2515
a(g1
I0
tp2516
a(g3
I0
tp2517
a(g3
I-1
tp2518
a(g1
I-3
tp2519
a(g3
I-2
tp2520
a(g3
I0
tp2521
a(g3
I-2
tp2522
a(g3
I0
tp2523
a(g3
I1
tp2524
a(g10
I0
tp2525
a(g3
I0
tp2526
a(g10
I-3
tp2527
a(g3
I1
tp2528
a(g10
I2
tp2529
a(g10
I-2
tp2530
a(g10
I0
tp2531
a(g10
I2
tp2532
a(g3
I0
tp2533
a(g3
I2
tp2534
a(g1
I-2
tp2535
a(g1
I0
tp2536
a(g10
I1
tp2537
a(g10
I0
tp2538
a(g1
I0
tp2539
a(g1
I0
tp2540
a(g1
I0
tp2541
a(g10
I0
tp2542
a(g3
I-1
tp2543
a(g1
I0
tp2544
a(g10
I0
tp2545
a(g10
I0
tp2546
a(g1
I0
tp2547
a(g3
I0
tp2548
a(g1
I-2
tp2549
a(g10
I0
tp2550
a(g3
I0
tp2551
a(g3
I0
tp2552
a(g3
I-1
tp2553
a(g3
I-1
tp2554
a(g3
I-1
tp2555
a(g1
I0
tp2556
a(g1
I0
tp2557
a(g3
I0
tp2558
a(g3
I0
tp2559
a(g3
I0
tp2560
a(g3
I0
tp2561
a(g1
I0
tp2562
a(g3
I1
tp2563
a(g3
I0
tp2564
a(g10
I0
tp2565
a(g3
I-3
tp2566
a(g1
I-2
tp2567
a(g10
I-1
tp2568
a(g3
I0
tp2569
a(g3
I-4
tp2570
a(g3
I0
tp2571
a(g1
I0
tp2572
a(g3
I-1
tp2573
a(g3
I0
tp2574
a(g10
I0
tp2575
a(g3
I-2
tp2576
a(g3
I-2
tp2577
a(g3
I-2
tp2578
a(g3
I-1
tp2579
a(g10
I0
tp2580
a(g10
I0
tp2581
a(g1
I1
tp2582
a(g1
I1
tp2583
a(g10
I1
tp2584
a(g10
I0
tp2585
a(g10
I0
tp2586
a(g10
I0
tp2587
a(g3
I0
tp2588
a(g10
I0
tp2589
a(g10
I0
tp2590
a(g3
I-1
tp2591
a(g3
I-1
tp2592
a(g1
I0
tp2593
a(g1
I0
tp2594
a(g1
I0
tp2595
a(g3
I0
tp2596
a(g1
I0
tp2597
a(g10
I-2
tp2598
a(g3
I-2
tp2599
a(g3
I0
tp2600
a(g3
I-2
tp2601
a(g3
I0
tp2602
a(g10
I1
tp2603
a(g1
I0
tp2604
a(g1
I0
tp2605
a(g3
I-1
tp2606
a(g3
I0
tp2607
a(g1
I0
tp2608
a(g3
I-1
tp2609
a(g3
I-2
tp2610
a(g3
I-1
tp2611
a(g3
I-2
tp2612
a(g3
I0
tp2613
a(g3
I0
tp2614
a(g1
I0
tp2615
a(g1
I-2
tp2616
a(g1
I0
tp2617
a(g10
I0
tp2618
a(g10
I0
tp2619
a(g10
I1
tp2620
a(g10
I0
tp2621
a(g10
I0
tp2622
a(g10
I1
tp2623
a(g10
I-1
tp2624
a(g3
I0
tp2625
a(g1
I-1
tp2626
a(g3
I0
tp2627
a(g1
I0
tp2628
a(g3
I0
tp2629
a(g3
I0
tp2630
a(g3
I-4
tp2631
a(g3
I-2
tp2632
a(g3
I0
tp2633
a(g1
I0
tp2634
a(g3
I-2
tp2635
a(g1
I0
tp2636
a(g3
I-2
tp2637
a(g10
I2
tp2638
a(g10
I1
tp2639
a(g1
I1
tp2640
a(g1
I-1
tp2641
a(g3
I0
tp2642
a(g3
I-2
tp2643
a(g3
I0
tp2644
a(g3
I0
tp2645
a(g3
I-2
tp2646
a(g3
I-2
tp2647
a(g3
I-2
tp2648
a(g3
I-1
tp2649
a(g3
I0
tp2650
a(g10
I1
tp2651
a(g3
I0
tp2652
a(g1
I0
tp2653
a(g1
I-3
tp2654
a(g3
I-1
tp2655
a(g1
I-2
tp2656
a(g10
I2
tp2657
a(g10
I3
tp2658
a(g3
I-2
tp2659
a(g1
I0
tp2660
a(g1
I0
tp2661
a(g10
I0
tp2662
a(g3
I-2
tp2663
a(g3
I-1
tp2664
a(g3
I0
tp2665
a(g3
I0
tp2666
a(g3
I-1
tp2667
a(g1
I1
tp2668
a(g1
I0
tp2669
a(g1
I-2
tp2670
a(g3
I0
tp2671
a(g3
I0
tp2672
a(g3
I-4
tp2673
a(g3
I1
tp2674
a(g3
I-2
tp2675
a(g3
I0
tp2676
a(g3
I1
tp2677
a(g10
I-1
tp2678
a(g10
I-1
tp2679
a(g10
I-1
tp2680
a(g3
I-3
tp2681
a(g3
I0
tp2682
a(g3
I-1
tp2683
a(g3
I-4
tp2684
a(g3
I0
tp2685
a(g3
I0
tp2686
a(g10
I1
tp2687
a(g1
I-2
tp2688
a(g1
I0
tp2689
a(g10
I0
tp2690
a(g1
I0
tp2691
a(g3
I-2
tp2692
a(g3
I0
tp2693
a(g3
I-4
tp2694
a(g3
I-4
tp2695
a(g3
I-4
tp2696
a(g1
I0
tp2697
a(g3
I-4
tp2698
a(g1
I0
tp2699
a(g3
I-4
tp2700
a(g3
I0
tp2701
a(g3
I1
tp2702
a(g3
I0
tp2703
a(g3
I0
tp2704
a(g3
I0
tp2705
a(g10
I1
tp2706
a(g3
I0
tp2707
a(g1
I0
tp2708
a(g3
I1
tp2709
a(g3
I1
tp2710
a(g3
I-1
tp2711
a(g3
I-2
tp2712
a(g3
I-2
tp2713
a(g3
I0
tp2714
a(g3
I0
tp2715
a(g3
I-1
tp2716
a(g10
I-2
tp2717
a(g10
I-2
tp2718
a(g10
I-2
tp2719
a(g3
I0
tp2720
a(g1
I0
tp2721
a(g3
I-4
tp2722
a(g1
I-2
tp2723
a(g3
I0
tp2724
a(g10
I0
tp2725
a(g3
I0
tp2726
a(g10
I2
tp2727
a(g10
I1
tp2728
a(g3
I-1
tp2729
a(g10
I0
tp2730
a(g3
I-1
tp2731
a(g3
I-2
tp2732
a(g10
I1
tp2733
a(g3
I0
tp2734
a(g10
I0
tp2735
a(g10
I0
tp2736
a(g3
I0
tp2737
a(g3
I0
tp2738
a(g3
I-2
tp2739
a(g10
I3
tp2740
a(g3
I0
tp2741
a(g3
I-3
tp2742
a(g3
I0
tp2743
a(g3
I0
tp2744
a(g10
I0
tp2745
a(g3
I-1
tp2746
a(g1
I0
tp2747
a(g1
I0
tp2748
a(g3
I-1
tp2749
a(g3
I0
tp2750
a(g1
I0
tp2751
a(g1
I0
tp2752
a(g1
I0
tp2753
a(g10
I1
tp2754
a(g10
I0
tp2755
a(g3
I-4
tp2756
a(g1
I0
tp2757
a(g3
I-3
tp2758
a(g10
I1
tp2759
a(g1
I0
tp2760
a(g3
I0
tp2761
a(g1
I0
tp2762
a(g3
I0
tp2763
a(g3
I1
tp2764
a(g3
I-1
tp2765
a(g3
I0
tp2766
a(g10
I0
tp2767
a(g3
I1
tp2768
a(g1
I1
tp2769
a(g3
I-3
tp2770
a(g3
I1
tp2771
a(g3
I0
tp2772
a(g1
I1
tp2773
a(g3
I0
tp2774
a(g3
I-1
tp2775
a(g3
I1
tp2776
a(g3
I0
tp2777
a(g3
I-2
tp2778
a(g3
I-2
tp2779
a(g1
I0
tp2780
a(g3
I-1
tp2781
a(g3
I0
tp2782
a(g3
I-3
tp2783
a(g1
I1
tp2784
a(g3
I-4
tp2785
a(g3
I-4
tp2786
a(g1
I0
tp2787
a(g10
I0
tp2788
a(g3
I0
tp2789
a(g10
I0
tp2790
a(g1
I1
tp2791
a(g10
I0
tp2792
a(g10
I-1
tp2793
a(g1
I0
tp2794
a(g1
I-2
tp2795
a(g10
I0
tp2796
a(g1
I0
tp2797
a(g10
I-2
tp2798
a(g10
I-1
tp2799
a(g10
I0
tp2800
a(g3
I-1
tp2801
a(g10
I0
tp2802
a(g10
I0
tp2803
a(g3
I-4
tp2804
a(g10
I0
tp2805
a(g10
I0
tp2806
a(g1
I0
tp2807
a(g3
I0
tp2808
a(g3
I0
tp2809
a(g1
I0
tp2810
a(g10
I0
tp2811
a(g1
I-1
tp2812
a(g10
I0
tp2813
a(g1
I0
tp2814
a(g1
I0
tp2815
a(g3
I1
tp2816
a(g10
I0
tp2817
a(g3
I0
tp2818
a(g3
I0
tp2819
a(g3
I-1
tp2820
a(g3
I-1
tp2821
a(g3
I1
tp2822
a(g1
I-2
tp2823
a(g3
I-1
tp2824
a(g3
I-2
tp2825
a(g10
I0
tp2826
a(g3
I0
tp2827
a(g3
I2
tp2828
a(g3
I0
tp2829
a(g3
I0
tp2830
a(g10
I0
tp2831
a(g3
I0
tp2832
a(g10
I-2
tp2833
a(g10
I0
tp2834
a(g10
I1
tp2835
a(g1
I0
tp2836
a(g10
I0
tp2837
a(g3
I-2
tp2838
a(g10
I-1
tp2839
a(g3
I-4
tp2840
a(g3
I0
tp2841
a(g1
I0
tp2842
a(g1
I0
tp2843
a(g3
I0
tp2844
a(g3
I-2
tp2845
a(g10
I1
tp2846
a(g3
I0
tp2847
a(g3
I-1
tp2848
a(g1
I0
tp2849
a(g3
I0
tp2850
a(g3
I0
tp2851
a(g1
I-2
tp2852
a(g3
I0
tp2853
a(g10
I-2
tp2854
a(g3
I0
tp2855
a(g1
I2
tp2856
a(g10
I0
tp2857
a(g10
I2
tp2858
a(g10
I0
tp2859
a(g3
I0
tp2860
a(g3
I1
tp2861
a(g10
I0
tp2862
a(g3
I0
tp2863
a(g10
I-2
tp2864
a(g1
I0
tp2865
a(g1
I0
tp2866
a(g3
I-1
tp2867
a(g3
I1
tp2868
a(g10
I1
tp2869
a(g10
I0
tp2870
a(g1
I0
tp2871
a(g10
I0
tp2872
a(g1
I0
tp2873
a(g1
I0
tp2874
a(g1
I0
tp2875
a(g1
I0
tp2876
a(g10
I0
tp2877
a(g1
I0
tp2878
a(g1
I-1
tp2879
a(g1
I0
tp2880
a(g10
I-2
tp2881
a(g10
I0
tp2882
a(g3
I0
tp2883
a(g3
I0
tp2884
a(g1
I0
tp2885
a(g3
I0
tp2886
a(g3
I1
tp2887
a(g1
I0
tp2888
a(g10
I0
tp2889
a(g1
I0
tp2890
a(g3
I1
tp2891
a(g3
I0
tp2892
a(g3
I0
tp2893
a(g10
I0
tp2894
a(g3
I-2
tp2895
a(g10
I-1
tp2896
a(g3
I0
tp2897
a(g3
I-3
tp2898
a(g3
I0
tp2899
a(g10
I1
tp2900
a(g3
I1
tp2901
a(g3
I-3
tp2902
a(g3
I-2
tp2903
a(g10
I0
tp2904
a(g3
I0
tp2905
a(g1
I0
tp2906
a(g1
I0
tp2907
a(g1
I0
tp2908
a(g3
I-2
tp2909
a(g3
I1
tp2910
a(g3
I-4
tp2911
a(g3
I-4
tp2912
a(g3
I-4
tp2913
a(g3
I-4
tp2914
a(g10
I-1
tp2915
a(g1
I-1
tp2916
a(g10
I1
tp2917
a(g10
I3
tp2918
a(g1
I2
tp2919
a(g3
I-1
tp2920
a(g1
I-2
tp2921
a(g1
I1
tp2922
a(g3
I-3
tp2923
a(g10
I0
tp2924
a(g3
I-1
tp2925
a(g10
I1
tp2926
a(g3
I-3
tp2927
a(g3
I1
tp2928
a(g1
I0
tp2929
a(g1
I0
tp2930
a(g3
I-4
tp2931
a(g1
I0
tp2932
a(g3
I0
tp2933
a(g3
I-4
tp2934
a(g3
I-2
tp2935
a(g3
I-4
tp2936
a(g1
I1
tp2937
a(g1
I0
tp2938
a(g10
I-2
tp2939
a(g3
I-1
tp2940
a(g3
I-1
tp2941
a(g3
I0
tp2942
a(g10
I0
tp2943
a(g1
I0
tp2944
a(g3
I-4
tp2945
a(g3
I0
tp2946
a(g3
I1
tp2947
a(g1
I-2
tp2948
a(g3
I-4
tp2949
a(g10
I0
tp2950
a(g3
I-2
tp2951
a(g3
I-2
tp2952
a(g3
I-2
tp2953
a(g3
I0
tp2954
a(g3
I-1
tp2955
a(g1
I0
tp2956
a(g3
I0
tp2957
a(g3
I-2
tp2958
a(g3
I0
tp2959
a(g3
I0
tp2960
a(g3
I-2
tp2961
a(g3
I2
tp2962
a(g10
I2
tp2963
a(g1
I0
tp2964
a(g3
I0
tp2965
a(g3
I1
tp2966
a(g1
I-2
tp2967
a(g1
I0
tp2968
a(g10
I1
tp2969
a(g3
I-1
tp2970
a(g3
I-2
tp2971
a(g3
I-1
tp2972
a(g3
I0
tp2973
a(g3
I2
tp2974
a(g1
I-2
tp2975
a(g10
I0
tp2976
a(g3
I0
tp2977
a(g3
I-4
tp2978
a(g3
I0
tp2979
a(g1
I0
tp2980
a(g3
I-2
tp2981
a(g3
I-2
tp2982
a(g3
I0
tp2983
a(g10
I1
tp2984
a(g3
I-2
tp2985
a(g1
I0
tp2986
a(g3
I0
tp2987
a(g1
I0
tp2988
a(g3
I-2
tp2989
a(g3
I0
tp2990
a(g3
I-2
tp2991
a(g3
I-2
tp2992
a(g1
I0
tp2993
a(g1
I-2
tp2994
a(g1
I0
tp2995
a(g3
I0
tp2996
a(g1
I1
tp2997
a(g10
I3
tp2998
a(g1
I1
tp2999
a(g1
I0
tp3000
a(g3
I0
tp3001
a(g10
I0
tp3002
a(g1
I-2
tp3003
a(g1
I0
tp3004
a(g3
I-4
tp3005
a(g10
I1
tp3006
a(g10
I1
tp3007
a(g1
I0
tp3008
a(g1
I0
tp3009
a(g1
I-2
tp3010
a(g10
I0
tp3011
a(g3
I0
tp3012
a(g3
I-1
tp3013
a(g3
I1
tp3014
a(g3
I-4
tp3015
a(g1
I0
tp3016
a(g1
I-2
tp3017
a(g3
I-2
tp3018
a(g3
I0
tp3019
a(g3
I0
tp3020
a(g3
I-2
tp3021
a(g3
I-3
tp3022
a(g3
I0
tp3023
a(g1
I1
tp3024
a(g1
I0
tp3025
a(g1
I0
tp3026
a(g10
I-1
tp3027
a(g3
I0
tp3028
a(g3
I1
tp3029
a(g3
I0
tp3030
a(g3
I-1
tp3031
a(g3
I-1
tp3032
a(g1
I1
tp3033
a(g3
I-1
tp3034
a(g1
I0
tp3035
a(g3
I-2
tp3036
a(g3
I0
tp3037
a(g3
I0
tp3038
a(g3
I-1
tp3039
a(g3
I0
tp3040
a(g3
I-1
tp3041
a(g3
I0
tp3042
a(g3
I-4
tp3043
a(g3
I-2
tp3044
a(g3
I0
tp3045
a(g3
I-2
tp3046
a(g3
I-2
tp3047
a(g3
I-1
tp3048
a(g3
I0
tp3049
a(g1
I0
tp3050
a(g3
I1
tp3051
a(g3
I-1
tp3052
a(g3
I-1
tp3053
a(g3
I0
tp3054
a(g3
I0
tp3055
a(g3
I0
tp3056
a(g1
I0
tp3057
a(g1
I0
tp3058
a(g10
I1
tp3059
a(g1
I1
tp3060
a(g1
I0
tp3061
a(g3
I-4
tp3062
a(g3
I-2
tp3063
a(g3
I2
tp3064
a(g3
I0
tp3065
a(g10
I0
tp3066
a(g10
I-2
tp3067
a(g10
I2
tp3068
a(g3
I-3
tp3069
a(g3
I-2
tp3070
a(g3
I0
tp3071
a(g1
I0
tp3072
a(g3
I-2
tp3073
a(g3
I-2
tp3074
a(g10
I0
tp3075
a(g10
I0
tp3076
a(g3
I-3
tp3077
a(g3
I0
tp3078
a(g3
I0
tp3079
a(g1
I0
tp3080
a(g10
I0
tp3081
a(g3
I-1
tp3082
a(g3
I0
tp3083
a(g3
I-4
tp3084
a(g1
I0
tp3085
a(g10
I0
tp3086
a(g10
I0
tp3087
a(g3
I0
tp3088
a(g3
I0
tp3089
a(g3
I0
tp3090
a(g1
I-1
tp3091
a(g10
I0
tp3092
a(g1
I0
tp3093
a(g1
I0
tp3094
a(g1
I1
tp3095
a(g1
I1
tp3096
a(g10
I0
tp3097
a(g10
I2
tp3098
a(g10
I0
tp3099
a(g1
I0
tp3100
a(g10
I0
tp3101
a(g1
I-1
tp3102
a(g1
I0
tp3103
a(g3
I-1
tp3104
a(g3
I0
tp3105
a(g3
I-1
tp3106
a(g3
I0
tp3107
a(g3
I0
tp3108
a(g3
I0
tp3109
a(g10
I0
tp3110
a(g10
I-1
tp3111
a(g10
I0
tp3112
a(g3
I0
tp3113
a(g3
I0
tp3114
a(g1
I0
tp3115
a(g3
I1
tp3116
a(g1
I0
tp3117
a(g3
I-1
tp3118
a(g3
I-1
tp3119
a(g10
I0
tp3120
a(g1
I0
tp3121
a(g3
I0
tp3122
a(g3
I0
tp3123
a(g10
I-1
tp3124
a(g3
I0
tp3125
a(g3
I-1
tp3126
a(g1
I0
tp3127
a(g3
I0
tp3128
a(g3
I-2
tp3129
a(g3
I-2
tp3130
a(g3
I-1
tp3131
a(g3
I1
tp3132
a(g3
I-2
tp3133
a(g3
I-4
tp3134
a(g3
I-2
tp3135
a(g3
I-2
tp3136
a(g3
I-1
tp3137
a(g1
I0
tp3138
a(g3
I-2
tp3139
a(g3
I-2
tp3140
a(g10
I1
tp3141
a(g1
I-2
tp3142
a(g1
I1
tp3143
a(g3
I0
tp3144
a(g3
I1
tp3145
a(g3
I-2
tp3146
a(g1
I0
tp3147
a(g10
I1
tp3148
a(g10
I0
tp3149
a(g10
I-1
tp3150
a(g10
I0
tp3151
a(g3
I0
tp3152
a(g3
I0
tp3153
a(g3
I-1
tp3154
a(g10
I0
tp3155
a(g1
I0
tp3156
a(g1
I-1
tp3157
a(g10
I0
tp3158
a(g3
I-4
tp3159
a(g10
I1
tp3160
a(g3
I0
tp3161
a(g10
I0
tp3162
a(g3
I0
tp3163
a(g1
I0
tp3164
a(g3
I0
tp3165
a(g3
I-1
tp3166
a(g10
I-3
tp3167
a(g10
I0
tp3168
a(g3
I-2
tp3169
a(g10
I-2
tp3170
a(g10
I0
tp3171
a(g10
I1
tp3172
a(g3
I-1
tp3173
a(g3
I0
tp3174
a(g3
I0
tp3175
a(g3
I1
tp3176
a(g3
I0
tp3177
a(g3
I-2
tp3178
a(g3
I-4
tp3179
a(g3
I1
tp3180
a(g3
I-3
tp3181
a(g3
I-4
tp3182
a(g3
I0
tp3183
a(g3
I0
tp3184
a(g3
I0
tp3185
a(g10
I4
tp3186
a(g3
I0
tp3187
a(g3
I0
tp3188
a(g3
I0
tp3189
a(g3
I-2
tp3190
a(g10
I0
tp3191
a(g3
I0
tp3192
a(g10
I0
tp3193
a(g10
I0
tp3194
a(g3
I-3
tp3195
a(g3
I0
tp3196
a(g3
I-2
tp3197
a(g1
I1
tp3198
a(g3
I-1
tp3199
a(g10
I1
tp3200
a(g10
I-1
tp3201
a(g1
I0
tp3202
a(g10
I0
tp3203
a(g3
I0
tp3204
a(g3
I1
tp3205
a(g1
I1
tp3206
a(g3
I-2
tp3207
a(g3
I0
tp3208
a(g1
I0
tp3209
a(g3
I-3
tp3210
a(g1
I1
tp3211
a(g1
I0
tp3212
a(g10
I0
tp3213
a(g10
I0
tp3214
a(g10
I2
tp3215
a(g3
I-1
tp3216
a(g1
I0
tp3217
a(g3
I-1
tp3218
a(g10
I0
tp3219
a(g3
I0
tp3220
a(g3
I1
tp3221
a(g3
I0
tp3222
a(g1
I0
tp3223
a(g1
I0
tp3224
a(g1
I0
tp3225
a(g10
I1
tp3226
a(g10
I0
tp3227
a(g3
I0
tp3228
a(g10
I-2
tp3229
a(g1
I1
tp3230
a(g3
I-4
tp3231
a(g3
I0
tp3232
a(g10
I0
tp3233
a(g1
I0
tp3234
a(g10
I0
tp3235
a(g10
I0
tp3236
a(g1
I0
tp3237
a(g3
I-1
tp3238
a(g3
I0
tp3239
a(g10
I0
tp3240
a(g3
I0
tp3241
a(g10
I0
tp3242
a(g3
I0
tp3243
a(g1
I0
tp3244
a(g1
I1
tp3245
a(g1
I0
tp3246
a(g3
I0
tp3247
a(g3
I-1
tp3248
a(g1
I1
tp3249
a(g1
I0
tp3250
a(g1
I0
tp3251
a(g1
I-2
tp3252
a(g10
I0
tp3253
a(g1
I-2
tp3254
a(g1
I-2
tp3255
a(g1
I1
tp3256
a(g1
I1
tp3257
a(g1
I-1
tp3258
a(g1
I0
tp3259
a(g3
I1
tp3260
a(g1
I0
tp3261
a(g1
I0
tp3262
a(g1
I3
tp3263
a(g1
I0
tp3264
a(g10
I-2
tp3265
a(g10
I0
tp3266
a(g3
I-2
tp3267
a(g3
I0
tp3268
a(g3
I-4
tp3269
a(g3
I-4
tp3270
a(g3
I-2
tp3271
a(g1
I0
tp3272
a(g10
I0
tp3273
a(g10
I-3
tp3274
a(g1
I0
tp3275
a(g10
I2
tp3276
a(g3
I-3
tp3277
a(g10
I0
tp3278
a(g3
I0
tp3279
a(g3
I0
tp3280
a(g1
I0
tp3281
a(g1
I0
tp3282
a(g10
I-1
tp3283
a(g3
I-2
tp3284
a(g3
I-1
tp3285
a(g1
I0
tp3286
a(g3
I0
tp3287
a(g10
I0
tp3288
a(g3
I-2
tp3289
a(g3
I0
tp3290
a(g3
I0
tp3291
a(g1
I0
tp3292
a(g3
I0
tp3293
a(g3
I-2
tp3294
a(g1
I-1
tp3295
a(g1
I0
tp3296
a(g10
I0
tp3297
a(g1
I0
tp3298
a(g10
I-2
tp3299
a(g10
I0
tp3300
a(g10
I-2
tp3301
a(g1
I0
tp3302
a(g3
I-2
tp3303
a(g3
I-4
tp3304
a(g3
I-2
tp3305
a(g1
I0
tp3306
a(g1
I2
tp3307
a(g10
I1
tp3308
a(g3
I1
tp3309
a(g10
I-1
tp3310
a(g1
I0
tp3311
a(g3
I0
tp3312
a(g3
I-2
tp3313
a(g1
I1
tp3314
a(g10
I-2
tp3315
a(g3
I1
tp3316
a(g3
I-2
tp3317
a(g10
I0
tp3318
a(g10
I1
tp3319
a(g3
I-1
tp3320
a(g3
I0
tp3321
a(g3
I-1
tp3322
a(g10
I0
tp3323
a(g3
I-2
tp3324
a(g10
I1
tp3325
a(g1
I-1
tp3326
a(g3
I-1
tp3327
a(g10
I-2
tp3328
a(g10
I0
tp3329
a(g3
I0
tp3330
a(g1
I0
tp3331
a(g3
I-1
tp3332
a(g3
I0
tp3333
a(g1
I-1
tp3334
a(g10
I-2
tp3335
a(g3
I0
tp3336
a(g1
I-2
tp3337
a(g1
I0
tp3338
a(g1
I-2
tp3339
a(g3
I0
tp3340
a(g3
I0
tp3341
a(g3
I-1
tp3342
a(g1
I0
tp3343
a(g3
I0
tp3344
a(g3
I-3
tp3345
a(g10
I1
tp3346
a(g3
I-4
tp3347
a(g1
I0
tp3348
a(g3
I-1
tp3349
a(g3
I2
tp3350
a(g10
I2
tp3351
a(g1
I1
tp3352
a(g3
I-2
tp3353
a(g3
I-4
tp3354
a(g3
I-1
tp3355
a(g1
I0
tp3356
a(g10
I1
tp3357
a(g1
I0
tp3358
a(g1
I-2
tp3359
a(g1
I2
tp3360
a(g3
I-2
tp3361
a(g1
I0
tp3362
a(g1
I0
tp3363
a(g3
I1
tp3364
a(g3
I-3
tp3365
a(g3
I-2
tp3366
a(g3
I2
tp3367
a(g3
I0
tp3368
a(g10
I1
tp3369
a(g3
I-1
tp3370
a(g10
I1
tp3371
a(g10
I0
tp3372
a(g3
I-2
tp3373
a(g3
I0
tp3374
a(g3
I0
tp3375
a(g1
I0
tp3376
a(g1
I-1
tp3377
a(g3
I1
tp3378
a(g1
I1
tp3379
a(g1
I-2
tp3380
a(g10
I0
tp3381
a(g1
I1
tp3382
a(g10
I-1
tp3383
a(g10
I0
tp3384
a(g1
I-2
tp3385
a(g3
I-2
tp3386
a(g3
I0
tp3387
a(g3
I1
tp3388
a(g1
I0
tp3389
a(g10
I1
tp3390
a(g10
I0
tp3391
a(g10
I0
tp3392
a(g10
I0
tp3393
a(g10
I0
tp3394
a(g1
I1
tp3395
a(g10
I0
tp3396
a(g1
I0
tp3397
a(g3
I-2
tp3398
a(g3
I0
tp3399
a(g10
I0
tp3400
a(g10
I0
tp3401
a(g3
I1
tp3402
a(g3
I-1
tp3403
a(g10
I0
tp3404
a(g3
I-3
tp3405
a(g10
I1
tp3406
a(g10
I0
tp3407
a(g3
I0
tp3408
a(g10
I-2
tp3409
a(g3
I-2
tp3410
a(g10
I0
tp3411
a(g10
I2
tp3412
a(g1
I0
tp3413
a(g3
I-2
tp3414
a(g3
I-2
tp3415
a(g10
I2
tp3416
a(g3
I-1
tp3417
a(g3
I-1
tp3418
a(g1
I0
tp3419
a(g1
I2
tp3420
a(g3
I0
tp3421
a(g3
I-2
tp3422
a(g3
I-1
tp3423
a(g3
I-3
tp3424
a(g3
I0
tp3425
a(g10
I-2
tp3426
a(g3
I-2
tp3427
a(g10
I2
tp3428
a(g3
I1
tp3429
a(g3
I-1
tp3430
a(g10
I0
tp3431
a(g1
I0
tp3432
a(g3
I1
tp3433
a(g3
I-3
tp3434
a(g1
I0
tp3435
a(g3
I0
tp3436
a(g10
I0
tp3437
a(g10
I0
tp3438
a(g3
I2
tp3439
a(g10
I2
tp3440
a(g3
I-2
tp3441
a(g3
I-1
tp3442
a(g10
I2
tp3443
a(g1
I0
tp3444
a(g3
I-2
tp3445
a(g1
I0
tp3446
a(g3
I-2
tp3447
a(g10
I0
tp3448
a(g10
I0
tp3449
a(g10
I1
tp3450
a(g1
I0
tp3451
a(g10
I0
tp3452
a(g3
I-2
tp3453
a(g10
I-2
tp3454
a(g1
I0
tp3455
a(g1
I0
tp3456
a(g1
I1
tp3457
a(g10
I-1
tp3458
a(g10
I0
tp3459
a(g1
I-2
tp3460
a(g10
I0
tp3461
a(g3
I-1
tp3462
a(g10
I1
tp3463
a(g10
I0
tp3464
a(g3
I0
tp3465
a(g3
I0
tp3466
a(g3
I-1
tp3467
a(g3
I0
tp3468
a(g1
I0
tp3469
a(g10
I0
tp3470
a(g10
I0
tp3471
a(g3
I0
tp3472
a(g10
I1
tp3473
a(g1
I0
tp3474
a(g3
I-1
tp3475
a(g3
I0
tp3476
a(g10
I0
tp3477
a(g10
I0
tp3478
a(g10
I1
tp3479
a(g10
I1
tp3480
a(g10
I0
tp3481
a(g10
I1
tp3482
a(g1
I0
tp3483
a(g10
I-2
tp3484
a(g10
I0
tp3485
a(g1
I0
tp3486
a(g1
I0
tp3487
a(g3
I1
tp3488
a(g3
I1
tp3489
a(g1
I0
tp3490
a(g3
I0
tp3491
a(g1
I0
tp3492
a(g1
I0
tp3493
a(g1
I0
tp3494
a(g10
I0
tp3495
a(g10
I-2
tp3496
a(g10
I0
tp3497
a(g3
I0
tp3498
a(g3
I0
tp3499
a(g10
I0
tp3500
a(g10
I0
tp3501
a(g1
I0
tp3502
a(g3
I0
tp3503
a(g3
I0
tp3504
a(g10
I-1
tp3505
a(g1
I-2
tp3506
a(g1
I0
tp3507
a(g10
I0
tp3508
a(g1
I-2
tp3509
a(g1
I-1
tp3510
a(g1
I0
tp3511
a(g1
I0
tp3512
a(g3
I0
tp3513
a(g10
I0
tp3514
a(g3
I-1
tp3515
a(g3
I1
tp3516
a(g1
I0
tp3517
a(g10
I1
tp3518
a(g1
I0
tp3519
a(g3
I-4
tp3520
a(g3
I-2
tp3521
a(g3
I0
tp3522
a(g10
I3
tp3523
a(g10
I0
tp3524
a(g1
I-1
tp3525
a(g10
I0
tp3526
a(g1
I0
tp3527
a(g1
I-2
tp3528
a(g1
I0
tp3529
a(g10
I0
tp3530
a(g10
I0
tp3531
a(g3
I-4
tp3532
a(g3
I-2
tp3533
a(g3
I1
tp3534
a(g1
I1
tp3535
a(g1
I0
tp3536
a(g10
I0
tp3537
a(g10
I1
tp3538
a(g10
I1
tp3539
a(g1
I0
tp3540
a(g3
I-1
tp3541
a(g10
I1
tp3542
a(g3
I-2
tp3543
a(g3
I-2
tp3544
a(g1
I0
tp3545
a(g3
I0
tp3546
a(g3
I-1
tp3547
a(g10
I0
tp3548
a(g3
I-4
tp3549
a(g10
I-2
tp3550
a(g10
I1
tp3551
a(g3
I0
tp3552
a(g1
I0
tp3553
a(g1
I0
tp3554
a(g3
I0
tp3555
a(g10
I2
tp3556
a(g1
I0
tp3557
a(g10
I2
tp3558
a(g1
I0
tp3559
a(g3
I0
tp3560
a(g10
I0
tp3561
a(g3
I0
tp3562
a(g3
I-1
tp3563
a(g3
I-3
tp3564
a(g3
I-2
tp3565
a(g3
I-2
tp3566
a(g10
I1
tp3567
a(g1
I0
tp3568
a(g3
I-1
tp3569
a(g3
I-2
tp3570
a(g3
I1
tp3571
a(g10
I2
tp3572
a(g10
I-2
tp3573
a(g3
I0
tp3574
a(g3
I0
tp3575
a(g3
I-1
tp3576
a(g1
I0
tp3577
a(g1
I0
tp3578
a(g1
I0
tp3579
a(g3
I0
tp3580
a(g3
I-2
tp3581
a(g3
I0
tp3582
a(g10
I0
tp3583
a(g3
I0
tp3584
a(g10
I0
tp3585
a(g1
I0
tp3586
a(g1
I-2
tp3587
a(g1
I-2
tp3588
a(g3
I0
tp3589
a(g10
I0
tp3590
a(g3
I0
tp3591
a(g3
I-3
tp3592
a(g3
I0
tp3593
a(g10
I0
tp3594
a(g1
I0
tp3595
a(g3
I1
tp3596
a(g3
I-1
tp3597
a(g3
I0
tp3598
a(g10
I0
tp3599
a(g10
I-2
tp3600
a(g10
I0
tp3601
a(g1
I2
tp3602
a(g3
I2
tp3603
a(g10
I-1
tp3604
a(g3
I-2
tp3605
a(g3
I-2
tp3606
a(g1
I0
tp3607
a(g10
I0
tp3608
a(g10
I0
tp3609
a(g10
I1
tp3610
a(g3
I-3
tp3611
a(g1
I-2
tp3612
a(g3
I0
tp3613
a(g3
I0
tp3614
a(g10
I0
tp3615
a(g10
I0
tp3616
a(g10
I0
tp3617
a(g10
I0
tp3618
a(g1
I0
tp3619
a(g1
I0
tp3620
a(g1
I-2
tp3621
a(g10
I1
tp3622
a(g3
I0
tp3623
a(g3
I1
tp3624
a(g3
I0
tp3625
a(g1
I0
tp3626
a(g3
I0
tp3627
a(g1
I0
tp3628
a(g1
I0
tp3629
a(g1
I1
tp3630
a(g1
I-2
tp3631
a(g1
I-2
tp3632
a(g1
I0
tp3633
a(g3
I-2
tp3634
a(g3
I-1
tp3635
a(g3
I-1
tp3636
a(g3
I0
tp3637
a(g3
I-1
tp3638
a(g3
I0
tp3639
a(g10
I-2
tp3640
a(g10
I0
tp3641
a(g1
I0
tp3642
a(g1
I0
tp3643
a(g3
I-2
tp3644
a(g1
I0
tp3645
a(g1
I0
tp3646
a(g10
I0
tp3647
a(g1
I0
tp3648
a(g1
I0
tp3649
a(g1
I-2
tp3650
a(g10
I0
tp3651
a(g1
I0
tp3652
a(g1
I0
tp3653
a(g3
I-2
tp3654
a(g3
I-2
tp3655
a(g1
I0
tp3656
a(g1
I1
tp3657
a(g3
I0
tp3658
a(g1
I0
tp3659
a(g3
I-1
tp3660
a(g10
I3
tp3661
a(g1
I3
tp3662
a(g10
I0
tp3663
a(g3
I-1
tp3664
a(g3
I-2
tp3665
a(g3
I-3
tp3666
a(g1
I0
tp3667
a(g1
I-2
tp3668
a(g3
I0
tp3669
a(g1
I-2
tp3670
a(g3
I-1
tp3671
a(g10
I1
tp3672
a(g3
I-3
tp3673
a(g10
I-2
tp3674
a(g1
I0
tp3675
a(g3
I0
tp3676
a(g1
I0
tp3677
a(g10
I0
tp3678
a(g10
I0
tp3679
a(g1
I0
tp3680
a(g10
I0
tp3681
a(g3
I2
tp3682
a(g3
I-1
tp3683
a(g10
I1
tp3684
a(g3
I0
tp3685
a(g10
I-2
tp3686
a(g3
I-2
tp3687
a(g10
I0
tp3688
a(g3
I-1
tp3689
a(g3
I0
tp3690
a(g10
I1
tp3691
a(g3
I-1
tp3692
a(g3
I0
tp3693
a(g3
I-2
tp3694
a(g1
I0
tp3695
a(g3
I-4
tp3696
a(g3
I-1
tp3697
a(g3
I0
tp3698
a(g3
I-3
tp3699
a(g3
I-1
tp3700
a(g10
I-1
tp3701
a(g1
I0
tp3702
a(g3
I1
tp3703
a(g1
I0
tp3704
a(g1
I0
tp3705
a(g3
I0
tp3706
a(g10
I0
tp3707
a(g10
I0
tp3708
a(g3
I-1
tp3709
a(g3
I0
tp3710
a(g3
I-3
tp3711
a(g10
I1
tp3712
a(g1
I0
tp3713
a(g3
I0
tp3714
a(g1
I0
tp3715
a(g10
I-2
tp3716
a(g3
I1
tp3717
a(g1
I-1
tp3718
a(g10
I0
tp3719
a(g10
I1
tp3720
a(g1
I0
tp3721
a(g10
I0
tp3722
a(g10
I-2
tp3723
a(g1
I0
tp3724
a(g10
I0
tp3725
a(g10
I2
tp3726
a(g10
I2
tp3727
a(g10
I1
tp3728
a(g10
I0
tp3729
a(g10
I2
tp3730
a(g1
I0
tp3731
a(g3
I-4
tp3732
a(g1
I0
tp3733
a(g1
I0
tp3734
a(g3
I-2
tp3735
a(g1
I0
tp3736
a(g3
I0
tp3737
a(g1
I1
tp3738
a(g3
I-2
tp3739
a(g10
I2
tp3740
a(g1
I0
tp3741
a(g3
I-2
tp3742
a(g10
I0
tp3743
a(g3
I-4
tp3744
a(g3
I-4
tp3745
a(g1
I0
tp3746
a(g3
I-2
tp3747
a(g3
I-1
tp3748
a(g1
I1
tp3749
a(g10
I-2
tp3750
a(g1
I0
tp3751
a(g1
I0
tp3752
a(g1
I-2
tp3753
a(g3
I-2
tp3754
a(g3
I0
tp3755
a(g3
I0
tp3756
a(g3
I0
tp3757
a(g3
I-1
tp3758
a(g3
I-1
tp3759
a(g1
I0
tp3760
a(g3
I0
tp3761
a(g3
I-3
tp3762
a(g10
I2
tp3763
a(g1
I0
tp3764
a(g10
I0
tp3765
a(g3
I0
tp3766
a(g10
I1
tp3767
a(g1
I0
tp3768
a(g3
I0
tp3769
a(g3
I-2
tp3770
a(g3
I-3
tp3771
a(g3
I0
tp3772
a(g3
I0
tp3773
a(g1
I-2
tp3774
a(g10
I0
tp3775
a(g3
I1
tp3776
a(g1
I0
tp3777
a(g1
I1
tp3778
a(g1
I1
tp3779
a(g10
I0
tp3780
a(g3
I-2
tp3781
a(g3
I0
tp3782
a(g10
I-2
tp3783
a(g1
I0
tp3784
a(g1
I0
tp3785
a(g10
I0
tp3786
a(g3
I0
tp3787
a(g10
I2
tp3788
a(g10
I0
tp3789
a(g10
I-1
tp3790
a(g3
I0
tp3791
a(g1
I-2
tp3792
a(g3
I0
tp3793
a(g3
I-1
tp3794
a(g3
I-2
tp3795
a(g3
I0
tp3796
a(g3
I0
tp3797
a(g10
I0
tp3798
a(g1
I0
tp3799
a(g3
I-4
tp3800
a(g1
I-2
tp3801
a(g3
I-1
tp3802
a(g1
I0
tp3803
a(g3
I0
tp3804
a(g10
I0
tp3805
a(g10
I2
tp3806
a(g10
I2
tp3807
a(g3
I-3
tp3808
a(g1
I0
tp3809
a(g1
I0
tp3810
a(g1
I0
tp3811
a(g10
I0
tp3812
a(g10
I0
tp3813
a(g3
I-2
tp3814
a(g3
I-2
tp3815
a(g10
I0
tp3816
a(g10
I0
tp3817
a(g3
I-3
tp3818
a(g3
I0
tp3819
a(g3
I0
tp3820
a(g1
I1
tp3821
a(g3
I1
tp3822
a(g10
I-1
tp3823
a(g3
I0
tp3824
a(g3
I-3
tp3825
a(g3
I0
tp3826
a(g3
I-4
tp3827
a(g1
I0
tp3828
a(g10
I-1
tp3829
a(g1
I0
tp3830
a(g10
I0
tp3831
a(g10
I2
tp3832
a(g3
I-2
tp3833
a(g3
I0
tp3834
a(g3
I-3
tp3835
a(g3
I-1
tp3836
a(g1
I0
tp3837
a(g3
I-1
tp3838
a(g10
I-2
tp3839
a(g1
I-2
tp3840
a(g3
I-2
tp3841
a(g3
I0
tp3842
a(g3
I-3
tp3843
a(g10
I0
tp3844
a(g3
I0
tp3845
a(g3
I0
tp3846
a(g3
I-2
tp3847
a(g10
I1
tp3848
a(g1
I0
tp3849
a(g1
I0
tp3850
a(g10
I0
tp3851
a(g1
I0
tp3852
a(g1
I0
tp3853
a(g1
I1
tp3854
a(g10
I0
tp3855
a(g1
I1
tp3856
a(g10
I0
tp3857
a(g3
I-2
tp3858
a(g1
I0
tp3859
a(g3
I0
tp3860
a(g1
I1
tp3861
a(g10
I-1
tp3862
a(g10
I0
tp3863
a(g10
I0
tp3864
a(g10
I-2
tp3865
a(g1
I0
tp3866
a(g10
I-2
tp3867
a(g1
I1
tp3868
a(g3
I0
tp3869
a(g3
I-1
tp3870
a(g10
I0
tp3871
a(g10
I1
tp3872
a(g10
I0
tp3873
a(g10
I-2
tp3874
a(g10
I0
tp3875
a(g10
I-2
tp3876
a(g1
I0
tp3877
a(g1
I0
tp3878
a(g1
I0
tp3879
a(g1
I0
tp3880
a(g1
I0
tp3881
a(g10
I-1
tp3882
a(g1
I0
tp3883
a(g10
I0
tp3884
a(g3
I-2
tp3885
a(g10
I0
tp3886
a(g1
I1
tp3887
a(g3
I0
tp3888
a(g10
I0
tp3889
a(g10
I1
tp3890
a(g3
I-3
tp3891
a(g3
I-4
tp3892
a(g1
I0
tp3893
a(g1
I0
tp3894
a(g3
I0
tp3895
a(g10
I0
tp3896
a.